
ctarget:     file format elf64-x86-64


Disassembly of section .init:

0000000000401000 <_init>:
  401000:	f3 0f 1e fa          	endbr64 
  401004:	48 83 ec 08          	sub    $0x8,%rsp
  401008:	48 8b 05 e1 4f 00 00 	mov    0x4fe1(%rip),%rax        # 405ff0 <__gmon_start__>
  40100f:	48 85 c0             	test   %rax,%rax
  401012:	74 02                	je     401016 <_init+0x16>
  401014:	ff d0                	callq  *%rax
  401016:	48 83 c4 08          	add    $0x8,%rsp
  40101a:	c3                   	retq   

Disassembly of section .plt:

0000000000401020 <.plt>:
  401020:	ff 35 e2 4f 00 00    	pushq  0x4fe2(%rip)        # 406008 <_GLOBAL_OFFSET_TABLE_+0x8>
  401026:	ff 25 e4 4f 00 00    	jmpq   *0x4fe4(%rip)        # 406010 <_GLOBAL_OFFSET_TABLE_+0x10>
  40102c:	0f 1f 40 00          	nopl   0x0(%rax)

0000000000401030 <strcasecmp@plt>:
  401030:	ff 25 e2 4f 00 00    	jmpq   *0x4fe2(%rip)        # 406018 <strcasecmp@GLIBC_2.2.5>
  401036:	68 00 00 00 00       	pushq  $0x0
  40103b:	e9 e0 ff ff ff       	jmpq   401020 <.plt>

0000000000401040 <__errno_location@plt>:
  401040:	ff 25 da 4f 00 00    	jmpq   *0x4fda(%rip)        # 406020 <__errno_location@GLIBC_2.2.5>
  401046:	68 01 00 00 00       	pushq  $0x1
  40104b:	e9 d0 ff ff ff       	jmpq   401020 <.plt>

0000000000401050 <srandom@plt>:
  401050:	ff 25 d2 4f 00 00    	jmpq   *0x4fd2(%rip)        # 406028 <srandom@GLIBC_2.2.5>
  401056:	68 02 00 00 00       	pushq  $0x2
  40105b:	e9 c0 ff ff ff       	jmpq   401020 <.plt>

0000000000401060 <strncmp@plt>:
  401060:	ff 25 ca 4f 00 00    	jmpq   *0x4fca(%rip)        # 406030 <strncmp@GLIBC_2.2.5>
  401066:	68 03 00 00 00       	pushq  $0x3
  40106b:	e9 b0 ff ff ff       	jmpq   401020 <.plt>

0000000000401070 <strcpy@plt>:
  401070:	ff 25 c2 4f 00 00    	jmpq   *0x4fc2(%rip)        # 406038 <strcpy@GLIBC_2.2.5>
  401076:	68 04 00 00 00       	pushq  $0x4
  40107b:	e9 a0 ff ff ff       	jmpq   401020 <.plt>

0000000000401080 <puts@plt>:
  401080:	ff 25 ba 4f 00 00    	jmpq   *0x4fba(%rip)        # 406040 <puts@GLIBC_2.2.5>
  401086:	68 05 00 00 00       	pushq  $0x5
  40108b:	e9 90 ff ff ff       	jmpq   401020 <.plt>

0000000000401090 <write@plt>:
  401090:	ff 25 b2 4f 00 00    	jmpq   *0x4fb2(%rip)        # 406048 <write@GLIBC_2.2.5>
  401096:	68 06 00 00 00       	pushq  $0x6
  40109b:	e9 80 ff ff ff       	jmpq   401020 <.plt>

00000000004010a0 <strlen@plt>:
  4010a0:	ff 25 aa 4f 00 00    	jmpq   *0x4faa(%rip)        # 406050 <strlen@GLIBC_2.2.5>
  4010a6:	68 07 00 00 00       	pushq  $0x7
  4010ab:	e9 70 ff ff ff       	jmpq   401020 <.plt>

00000000004010b0 <mmap@plt>:
  4010b0:	ff 25 a2 4f 00 00    	jmpq   *0x4fa2(%rip)        # 406058 <mmap@GLIBC_2.2.5>
  4010b6:	68 08 00 00 00       	pushq  $0x8
  4010bb:	e9 60 ff ff ff       	jmpq   401020 <.plt>

00000000004010c0 <printf@plt>:
  4010c0:	ff 25 9a 4f 00 00    	jmpq   *0x4f9a(%rip)        # 406060 <printf@GLIBC_2.2.5>
  4010c6:	68 09 00 00 00       	pushq  $0x9
  4010cb:	e9 50 ff ff ff       	jmpq   401020 <.plt>

00000000004010d0 <snprintf@plt>:
  4010d0:	ff 25 92 4f 00 00    	jmpq   *0x4f92(%rip)        # 406068 <snprintf@GLIBC_2.2.5>
  4010d6:	68 0a 00 00 00       	pushq  $0xa
  4010db:	e9 40 ff ff ff       	jmpq   401020 <.plt>

00000000004010e0 <gai_strerror@plt>:
  4010e0:	ff 25 8a 4f 00 00    	jmpq   *0x4f8a(%rip)        # 406070 <gai_strerror@GLIBC_2.2.5>
  4010e6:	68 0b 00 00 00       	pushq  $0xb
  4010eb:	e9 30 ff ff ff       	jmpq   401020 <.plt>

00000000004010f0 <memset@plt>:
  4010f0:	ff 25 82 4f 00 00    	jmpq   *0x4f82(%rip)        # 406078 <memset@GLIBC_2.2.5>
  4010f6:	68 0c 00 00 00       	pushq  $0xc
  4010fb:	e9 20 ff ff ff       	jmpq   401020 <.plt>

0000000000401100 <alarm@plt>:
  401100:	ff 25 7a 4f 00 00    	jmpq   *0x4f7a(%rip)        # 406080 <alarm@GLIBC_2.2.5>
  401106:	68 0d 00 00 00       	pushq  $0xd
  40110b:	e9 10 ff ff ff       	jmpq   401020 <.plt>

0000000000401110 <close@plt>:
  401110:	ff 25 72 4f 00 00    	jmpq   *0x4f72(%rip)        # 406088 <close@GLIBC_2.2.5>
  401116:	68 0e 00 00 00       	pushq  $0xe
  40111b:	e9 00 ff ff ff       	jmpq   401020 <.plt>

0000000000401120 <read@plt>:
  401120:	ff 25 6a 4f 00 00    	jmpq   *0x4f6a(%rip)        # 406090 <read@GLIBC_2.2.5>
  401126:	68 0f 00 00 00       	pushq  $0xf
  40112b:	e9 f0 fe ff ff       	jmpq   401020 <.plt>

0000000000401130 <strcmp@plt>:
  401130:	ff 25 62 4f 00 00    	jmpq   *0x4f62(%rip)        # 406098 <strcmp@GLIBC_2.2.5>
  401136:	68 10 00 00 00       	pushq  $0x10
  40113b:	e9 e0 fe ff ff       	jmpq   401020 <.plt>

0000000000401140 <signal@plt>:
  401140:	ff 25 5a 4f 00 00    	jmpq   *0x4f5a(%rip)        # 4060a0 <signal@GLIBC_2.2.5>
  401146:	68 11 00 00 00       	pushq  $0x11
  40114b:	e9 d0 fe ff ff       	jmpq   401020 <.plt>

0000000000401150 <fprintf@plt>:
  401150:	ff 25 52 4f 00 00    	jmpq   *0x4f52(%rip)        # 4060a8 <fprintf@GLIBC_2.2.5>
  401156:	68 12 00 00 00       	pushq  $0x12
  40115b:	e9 c0 fe ff ff       	jmpq   401020 <.plt>

0000000000401160 <strtol@plt>:
  401160:	ff 25 4a 4f 00 00    	jmpq   *0x4f4a(%rip)        # 4060b0 <strtol@GLIBC_2.2.5>
  401166:	68 13 00 00 00       	pushq  $0x13
  40116b:	e9 b0 fe ff ff       	jmpq   401020 <.plt>

0000000000401170 <memcpy@plt>:
  401170:	ff 25 42 4f 00 00    	jmpq   *0x4f42(%rip)        # 4060b8 <memcpy@GLIBC_2.14>
  401176:	68 14 00 00 00       	pushq  $0x14
  40117b:	e9 a0 fe ff ff       	jmpq   401020 <.plt>

0000000000401180 <time@plt>:
  401180:	ff 25 3a 4f 00 00    	jmpq   *0x4f3a(%rip)        # 4060c0 <time@GLIBC_2.2.5>
  401186:	68 15 00 00 00       	pushq  $0x15
  40118b:	e9 90 fe ff ff       	jmpq   401020 <.plt>

0000000000401190 <random@plt>:
  401190:	ff 25 32 4f 00 00    	jmpq   *0x4f32(%rip)        # 4060c8 <random@GLIBC_2.2.5>
  401196:	68 16 00 00 00       	pushq  $0x16
  40119b:	e9 80 fe ff ff       	jmpq   401020 <.plt>

00000000004011a0 <__isoc99_sscanf@plt>:
  4011a0:	ff 25 2a 4f 00 00    	jmpq   *0x4f2a(%rip)        # 4060d0 <__isoc99_sscanf@GLIBC_2.7>
  4011a6:	68 17 00 00 00       	pushq  $0x17
  4011ab:	e9 70 fe ff ff       	jmpq   401020 <.plt>

00000000004011b0 <munmap@plt>:
  4011b0:	ff 25 22 4f 00 00    	jmpq   *0x4f22(%rip)        # 4060d8 <munmap@GLIBC_2.2.5>
  4011b6:	68 18 00 00 00       	pushq  $0x18
  4011bb:	e9 60 fe ff ff       	jmpq   401020 <.plt>

00000000004011c0 <fopen@plt>:
  4011c0:	ff 25 1a 4f 00 00    	jmpq   *0x4f1a(%rip)        # 4060e0 <fopen@GLIBC_2.2.5>
  4011c6:	68 19 00 00 00       	pushq  $0x19
  4011cb:	e9 50 fe ff ff       	jmpq   401020 <.plt>

00000000004011d0 <getopt@plt>:
  4011d0:	ff 25 12 4f 00 00    	jmpq   *0x4f12(%rip)        # 4060e8 <getopt@GLIBC_2.2.5>
  4011d6:	68 1a 00 00 00       	pushq  $0x1a
  4011db:	e9 40 fe ff ff       	jmpq   401020 <.plt>

00000000004011e0 <strtoul@plt>:
  4011e0:	ff 25 0a 4f 00 00    	jmpq   *0x4f0a(%rip)        # 4060f0 <strtoul@GLIBC_2.2.5>
  4011e6:	68 1b 00 00 00       	pushq  $0x1b
  4011eb:	e9 30 fe ff ff       	jmpq   401020 <.plt>

00000000004011f0 <gethostname@plt>:
  4011f0:	ff 25 02 4f 00 00    	jmpq   *0x4f02(%rip)        # 4060f8 <gethostname@GLIBC_2.2.5>
  4011f6:	68 1c 00 00 00       	pushq  $0x1c
  4011fb:	e9 20 fe ff ff       	jmpq   401020 <.plt>

0000000000401200 <sprintf@plt>:
  401200:	ff 25 fa 4e 00 00    	jmpq   *0x4efa(%rip)        # 406100 <sprintf@GLIBC_2.2.5>
  401206:	68 1d 00 00 00       	pushq  $0x1d
  40120b:	e9 10 fe ff ff       	jmpq   401020 <.plt>

0000000000401210 <exit@plt>:
  401210:	ff 25 f2 4e 00 00    	jmpq   *0x4ef2(%rip)        # 406108 <exit@GLIBC_2.2.5>
  401216:	68 1e 00 00 00       	pushq  $0x1e
  40121b:	e9 00 fe ff ff       	jmpq   401020 <.plt>

0000000000401220 <connect@plt>:
  401220:	ff 25 ea 4e 00 00    	jmpq   *0x4eea(%rip)        # 406110 <connect@GLIBC_2.2.5>
  401226:	68 1f 00 00 00       	pushq  $0x1f
  40122b:	e9 f0 fd ff ff       	jmpq   401020 <.plt>

0000000000401230 <getaddrinfo@plt>:
  401230:	ff 25 e2 4e 00 00    	jmpq   *0x4ee2(%rip)        # 406118 <getaddrinfo@GLIBC_2.2.5>
  401236:	68 20 00 00 00       	pushq  $0x20
  40123b:	e9 e0 fd ff ff       	jmpq   401020 <.plt>

0000000000401240 <getc@plt>:
  401240:	ff 25 da 4e 00 00    	jmpq   *0x4eda(%rip)        # 406120 <getc@GLIBC_2.2.5>
  401246:	68 21 00 00 00       	pushq  $0x21
  40124b:	e9 d0 fd ff ff       	jmpq   401020 <.plt>

0000000000401250 <freeaddrinfo@plt>:
  401250:	ff 25 d2 4e 00 00    	jmpq   *0x4ed2(%rip)        # 406128 <freeaddrinfo@GLIBC_2.2.5>
  401256:	68 22 00 00 00       	pushq  $0x22
  40125b:	e9 c0 fd ff ff       	jmpq   401020 <.plt>

0000000000401260 <socket@plt>:
  401260:	ff 25 ca 4e 00 00    	jmpq   *0x4eca(%rip)        # 406130 <socket@GLIBC_2.2.5>
  401266:	68 23 00 00 00       	pushq  $0x23
  40126b:	e9 b0 fd ff ff       	jmpq   401020 <.plt>

Disassembly of section .text:

0000000000401270 <_start>:
  401270:	f3 0f 1e fa          	endbr64 
  401274:	31 ed                	xor    %ebp,%ebp
  401276:	49 89 d1             	mov    %rdx,%r9
  401279:	5e                   	pop    %rsi
  40127a:	48 89 e2             	mov    %rsp,%rdx
  40127d:	48 83 e4 f0          	and    $0xfffffffffffffff0,%rsp
  401281:	50                   	push   %rax
  401282:	54                   	push   %rsp
  401283:	45 31 c0             	xor    %r8d,%r8d
  401286:	31 c9                	xor    %ecx,%ecx
  401288:	48 c7 c7 1f 15 40 00 	mov    $0x40151f,%rdi
  40128f:	ff 15 4b 4d 00 00    	callq  *0x4d4b(%rip)        # 405fe0 <__libc_start_main@GLIBC_2.34>
  401295:	f4                   	hlt    
  401296:	66 2e 0f 1f 84 00 00 	nopw   %cs:0x0(%rax,%rax,1)
  40129d:	00 00 00 

00000000004012a0 <_dl_relocate_static_pie>:
  4012a0:	f3 0f 1e fa          	endbr64 
  4012a4:	c3                   	retq   
  4012a5:	66 2e 0f 1f 84 00 00 	nopw   %cs:0x0(%rax,%rax,1)
  4012ac:	00 00 00 
  4012af:	90                   	nop

00000000004012b0 <deregister_tm_clones>:
  4012b0:	48 8d 3d 01 52 00 00 	lea    0x5201(%rip),%rdi        # 4064b8 <__TMC_END__>
  4012b7:	48 8d 05 fa 51 00 00 	lea    0x51fa(%rip),%rax        # 4064b8 <__TMC_END__>
  4012be:	48 39 f8             	cmp    %rdi,%rax
  4012c1:	74 15                	je     4012d8 <deregister_tm_clones+0x28>
  4012c3:	48 8b 05 1e 4d 00 00 	mov    0x4d1e(%rip),%rax        # 405fe8 <_ITM_deregisterTMCloneTable>
  4012ca:	48 85 c0             	test   %rax,%rax
  4012cd:	74 09                	je     4012d8 <deregister_tm_clones+0x28>
  4012cf:	ff e0                	jmpq   *%rax
  4012d1:	0f 1f 80 00 00 00 00 	nopl   0x0(%rax)
  4012d8:	c3                   	retq   
  4012d9:	0f 1f 80 00 00 00 00 	nopl   0x0(%rax)

00000000004012e0 <register_tm_clones>:
  4012e0:	48 8d 3d d1 51 00 00 	lea    0x51d1(%rip),%rdi        # 4064b8 <__TMC_END__>
  4012e7:	48 8d 35 ca 51 00 00 	lea    0x51ca(%rip),%rsi        # 4064b8 <__TMC_END__>
  4012ee:	48 29 fe             	sub    %rdi,%rsi
  4012f1:	48 89 f0             	mov    %rsi,%rax
  4012f4:	48 c1 ee 3f          	shr    $0x3f,%rsi
  4012f8:	48 c1 f8 03          	sar    $0x3,%rax
  4012fc:	48 01 c6             	add    %rax,%rsi
  4012ff:	48 d1 fe             	sar    %rsi
  401302:	74 14                	je     401318 <register_tm_clones+0x38>
  401304:	48 8b 05 ed 4c 00 00 	mov    0x4ced(%rip),%rax        # 405ff8 <_ITM_registerTMCloneTable>
  40130b:	48 85 c0             	test   %rax,%rax
  40130e:	74 08                	je     401318 <register_tm_clones+0x38>
  401310:	ff e0                	jmpq   *%rax
  401312:	66 0f 1f 44 00 00    	nopw   0x0(%rax,%rax,1)
  401318:	c3                   	retq   
  401319:	0f 1f 80 00 00 00 00 	nopl   0x0(%rax)

0000000000401320 <__do_global_dtors_aux>:
  401320:	f3 0f 1e fa          	endbr64 
  401324:	80 3d dd 51 00 00 00 	cmpb   $0x0,0x51dd(%rip)        # 406508 <completed.0>
  40132b:	75 13                	jne    401340 <__do_global_dtors_aux+0x20>
  40132d:	55                   	push   %rbp
  40132e:	48 89 e5             	mov    %rsp,%rbp
  401331:	e8 7a ff ff ff       	callq  4012b0 <deregister_tm_clones>
  401336:	c6 05 cb 51 00 00 01 	movb   $0x1,0x51cb(%rip)        # 406508 <completed.0>
  40133d:	5d                   	pop    %rbp
  40133e:	c3                   	retq   
  40133f:	90                   	nop
  401340:	c3                   	retq   
  401341:	66 66 2e 0f 1f 84 00 	data16 nopw %cs:0x0(%rax,%rax,1)
  401348:	00 00 00 00 
  40134c:	0f 1f 40 00          	nopl   0x0(%rax)

0000000000401350 <frame_dummy>:
  401350:	f3 0f 1e fa          	endbr64 
  401354:	eb 8a                	jmp    4012e0 <register_tm_clones>

0000000000401356 <usage>:
  401356:	48 83 ec 08          	sub    $0x8,%rsp
  40135a:	48 89 fe             	mov    %rdi,%rsi
  40135d:	83 3d ec 51 00 00 00 	cmpl   $0x0,0x51ec(%rip)        # 406550 <is_checker>
  401364:	74 41                	je     4013a7 <usage+0x51>
  401366:	bf 10 30 40 00       	mov    $0x403010,%edi
  40136b:	b8 00 00 00 00       	mov    $0x0,%eax
  401370:	e8 4b fd ff ff       	callq  4010c0 <printf@plt>
  401375:	bf 48 30 40 00       	mov    $0x403048,%edi
  40137a:	e8 01 fd ff ff       	callq  401080 <puts@plt>
  40137f:	bf c0 31 40 00       	mov    $0x4031c0,%edi
  401384:	e8 f7 fc ff ff       	callq  401080 <puts@plt>
  401389:	bf 70 30 40 00       	mov    $0x403070,%edi
  40138e:	e8 ed fc ff ff       	callq  401080 <puts@plt>
  401393:	bf da 31 40 00       	mov    $0x4031da,%edi
  401398:	e8 e3 fc ff ff       	callq  401080 <puts@plt>
  40139d:	bf 00 00 00 00       	mov    $0x0,%edi
  4013a2:	e8 69 fe ff ff       	callq  401210 <exit@plt>
  4013a7:	bf f6 31 40 00       	mov    $0x4031f6,%edi
  4013ac:	b8 00 00 00 00       	mov    $0x0,%eax
  4013b1:	e8 0a fd ff ff       	callq  4010c0 <printf@plt>
  4013b6:	bf 98 30 40 00       	mov    $0x403098,%edi
  4013bb:	e8 c0 fc ff ff       	callq  401080 <puts@plt>
  4013c0:	bf c0 30 40 00       	mov    $0x4030c0,%edi
  4013c5:	e8 b6 fc ff ff       	callq  401080 <puts@plt>
  4013ca:	bf 14 32 40 00       	mov    $0x403214,%edi
  4013cf:	e8 ac fc ff ff       	callq  401080 <puts@plt>
  4013d4:	eb c7                	jmp    40139d <usage+0x47>

00000000004013d6 <initialize_target>:
  4013d6:	55                   	push   %rbp
  4013d7:	53                   	push   %rbx
  4013d8:	48 81 ec 08 21 00 00 	sub    $0x2108,%rsp
  4013df:	89 f5                	mov    %esi,%ebp
  4013e1:	89 3d 59 51 00 00    	mov    %edi,0x5159(%rip)        # 406540 <check_level>
  4013e7:	8b 3d 7b 4d 00 00    	mov    0x4d7b(%rip),%edi        # 406168 <target_id>
  4013ed:	e8 a5 1b 00 00       	callq  402f97 <gencookie>
  4013f2:	89 c7                	mov    %eax,%edi
  4013f4:	89 05 52 51 00 00    	mov    %eax,0x5152(%rip)        # 40654c <cookie>
  4013fa:	e8 98 1b 00 00       	callq  402f97 <gencookie>
  4013ff:	89 05 43 51 00 00    	mov    %eax,0x5143(%rip)        # 406548 <authkey>
  401405:	8b 05 5d 4d 00 00    	mov    0x4d5d(%rip),%eax        # 406168 <target_id>
  40140b:	8d 78 01             	lea    0x1(%rax),%edi
  40140e:	e8 3d fc ff ff       	callq  401050 <srandom@plt>
  401413:	e8 78 fd ff ff       	callq  401190 <random@plt>
  401418:	89 c7                	mov    %eax,%edi
  40141a:	e8 b8 02 00 00       	callq  4016d7 <scramble>
  40141f:	89 c3                	mov    %eax,%ebx
  401421:	85 ed                	test   %ebp,%ebp
  401423:	75 3d                	jne    401462 <initialize_target+0x8c>
  401425:	b8 00 00 00 00       	mov    $0x0,%eax
  40142a:	01 d8                	add    %ebx,%eax
  40142c:	0f b7 c0             	movzwl %ax,%eax
  40142f:	8d 04 c5 00 01 00 00 	lea    0x100(,%rax,8),%eax
  401436:	89 c0                	mov    %eax,%eax
  401438:	48 89 05 71 50 00 00 	mov    %rax,0x5071(%rip)        # 4064b0 <buf_offset>
  40143f:	c6 05 fe 4c 00 00 63 	movb   $0x63,0x4cfe(%rip)        # 406144 <target_prefix>
  401446:	83 3d 5b 50 00 00 00 	cmpl   $0x0,0x505b(%rip)        # 4064a8 <notify>
  40144d:	74 09                	je     401458 <initialize_target+0x82>
  40144f:	83 3d fa 50 00 00 00 	cmpl   $0x0,0x50fa(%rip)        # 406550 <is_checker>
  401456:	74 22                	je     40147a <initialize_target+0xa4>
  401458:	48 81 c4 08 21 00 00 	add    $0x2108,%rsp
  40145f:	5b                   	pop    %rbx
  401460:	5d                   	pop    %rbp
  401461:	c3                   	retq   
  401462:	bf 00 00 00 00       	mov    $0x0,%edi
  401467:	e8 14 fd ff ff       	callq  401180 <time@plt>
  40146c:	89 c7                	mov    %eax,%edi
  40146e:	e8 dd fb ff ff       	callq  401050 <srandom@plt>
  401473:	e8 18 fd ff ff       	callq  401190 <random@plt>
  401478:	eb b0                	jmp    40142a <initialize_target+0x54>
  40147a:	be 00 01 00 00       	mov    $0x100,%esi
  40147f:	48 89 e7             	mov    %rsp,%rdi
  401482:	e8 69 fd ff ff       	callq  4011f0 <gethostname@plt>
  401487:	89 c5                	mov    %eax,%ebp
  401489:	85 c0                	test   %eax,%eax
  40148b:	75 23                	jne    4014b0 <initialize_target+0xda>
  40148d:	89 c3                	mov    %eax,%ebx
  40148f:	48 63 c3             	movslq %ebx,%rax
  401492:	48 8b 3c c5 80 61 40 	mov    0x406180(,%rax,8),%rdi
  401499:	00 
  40149a:	48 85 ff             	test   %rdi,%rdi
  40149d:	74 2a                	je     4014c9 <initialize_target+0xf3>
  40149f:	48 89 e6             	mov    %rsp,%rsi
  4014a2:	e8 89 fb ff ff       	callq  401030 <strcasecmp@plt>
  4014a7:	85 c0                	test   %eax,%eax
  4014a9:	74 19                	je     4014c4 <initialize_target+0xee>
  4014ab:	83 c3 01             	add    $0x1,%ebx
  4014ae:	eb df                	jmp    40148f <initialize_target+0xb9>
  4014b0:	bf f0 30 40 00       	mov    $0x4030f0,%edi
  4014b5:	e8 c6 fb ff ff       	callq  401080 <puts@plt>
  4014ba:	bf 08 00 00 00       	mov    $0x8,%edi
  4014bf:	e8 4c fd ff ff       	callq  401210 <exit@plt>
  4014c4:	bd 01 00 00 00       	mov    $0x1,%ebp
  4014c9:	85 ed                	test   %ebp,%ebp
  4014cb:	74 36                	je     401503 <initialize_target+0x12d>
  4014cd:	48 8d bc 24 00 01 00 	lea    0x100(%rsp),%rdi
  4014d4:	00 
  4014d5:	e8 90 18 00 00       	callq  402d6a <init_driver>
  4014da:	85 c0                	test   %eax,%eax
  4014dc:	0f 89 76 ff ff ff    	jns    401458 <initialize_target+0x82>
  4014e2:	48 8d b4 24 00 01 00 	lea    0x100(%rsp),%rsi
  4014e9:	00 
  4014ea:	bf 68 31 40 00       	mov    $0x403168,%edi
  4014ef:	b8 00 00 00 00       	mov    $0x0,%eax
  4014f4:	e8 c7 fb ff ff       	callq  4010c0 <printf@plt>
  4014f9:	bf 08 00 00 00       	mov    $0x8,%edi
  4014fe:	e8 0d fd ff ff       	callq  401210 <exit@plt>
  401503:	48 89 e6             	mov    %rsp,%rsi
  401506:	bf 28 31 40 00       	mov    $0x403128,%edi
  40150b:	b8 00 00 00 00       	mov    $0x0,%eax
  401510:	e8 ab fb ff ff       	callq  4010c0 <printf@plt>
  401515:	bf 08 00 00 00       	mov    $0x8,%edi
  40151a:	e8 f1 fc ff ff       	callq  401210 <exit@plt>

000000000040151f <main>:
  40151f:	41 56                	push   %r14
  401521:	41 55                	push   %r13
  401523:	41 54                	push   %r12
  401525:	55                   	push   %rbp
  401526:	53                   	push   %rbx
  401527:	89 fd                	mov    %edi,%ebp
  401529:	48 89 f3             	mov    %rsi,%rbx
  40152c:	be b0 21 40 00       	mov    $0x4021b0,%esi
  401531:	bf 0b 00 00 00       	mov    $0xb,%edi
  401536:	e8 05 fc ff ff       	callq  401140 <signal@plt>
  40153b:	be 62 21 40 00       	mov    $0x402162,%esi
  401540:	bf 07 00 00 00       	mov    $0x7,%edi
  401545:	e8 f6 fb ff ff       	callq  401140 <signal@plt>
  40154a:	be fe 21 40 00       	mov    $0x4021fe,%esi
  40154f:	bf 04 00 00 00       	mov    $0x4,%edi
  401554:	e8 e7 fb ff ff       	callq  401140 <signal@plt>
  401559:	83 3d f0 4f 00 00 00 	cmpl   $0x0,0x4ff0(%rip)        # 406550 <is_checker>
  401560:	75 25                	jne    401587 <main+0x68>
  401562:	41 bc 2d 32 40 00    	mov    $0x40322d,%r12d
  401568:	48 8b 05 51 4f 00 00 	mov    0x4f51(%rip),%rax        # 4064c0 <stdin@@GLIBC_2.2.5>
  40156f:	48 89 05 c2 4f 00 00 	mov    %rax,0x4fc2(%rip)        # 406538 <infile>
  401576:	41 bd 00 00 00 00    	mov    $0x0,%r13d
  40157c:	41 be 00 00 00 00    	mov    $0x0,%r14d
  401582:	e9 81 00 00 00       	jmpq   401608 <main+0xe9>
  401587:	be 4c 22 40 00       	mov    $0x40224c,%esi
  40158c:	bf 0e 00 00 00       	mov    $0xe,%edi
  401591:	e8 aa fb ff ff       	callq  401140 <signal@plt>
  401596:	bf 05 00 00 00       	mov    $0x5,%edi
  40159b:	e8 60 fb ff ff       	callq  401100 <alarm@plt>
  4015a0:	41 bc 32 32 40 00    	mov    $0x403232,%r12d
  4015a6:	eb c0                	jmp    401568 <main+0x49>
  4015a8:	48 8b 3b             	mov    (%rbx),%rdi
  4015ab:	e8 a6 fd ff ff       	callq  401356 <usage>
  4015b0:	be 05 38 40 00       	mov    $0x403805,%esi
  4015b5:	48 8b 3d 24 4f 00 00 	mov    0x4f24(%rip),%rdi        # 4064e0 <optarg@@GLIBC_2.2.5>
  4015bc:	e8 ff fb ff ff       	callq  4011c0 <fopen@plt>
  4015c1:	48 89 05 70 4f 00 00 	mov    %rax,0x4f70(%rip)        # 406538 <infile>
  4015c8:	48 85 c0             	test   %rax,%rax
  4015cb:	75 3b                	jne    401608 <main+0xe9>
  4015cd:	48 8b 15 0c 4f 00 00 	mov    0x4f0c(%rip),%rdx        # 4064e0 <optarg@@GLIBC_2.2.5>
  4015d4:	be 3a 32 40 00       	mov    $0x40323a,%esi
  4015d9:	48 8b 3d 20 4f 00 00 	mov    0x4f20(%rip),%rdi        # 406500 <stderr@@GLIBC_2.2.5>
  4015e0:	e8 6b fb ff ff       	callq  401150 <fprintf@plt>
  4015e5:	b8 01 00 00 00       	mov    $0x1,%eax
  4015ea:	e9 c1 00 00 00       	jmpq   4016b0 <main+0x191>
  4015ef:	ba 10 00 00 00       	mov    $0x10,%edx
  4015f4:	be 00 00 00 00       	mov    $0x0,%esi
  4015f9:	48 8b 3d e0 4e 00 00 	mov    0x4ee0(%rip),%rdi        # 4064e0 <optarg@@GLIBC_2.2.5>
  401600:	e8 db fb ff ff       	callq  4011e0 <strtoul@plt>
  401605:	41 89 c6             	mov    %eax,%r14d
  401608:	4c 89 e2             	mov    %r12,%rdx
  40160b:	48 89 de             	mov    %rbx,%rsi
  40160e:	89 ef                	mov    %ebp,%edi
  401610:	e8 bb fb ff ff       	callq  4011d0 <getopt@plt>
  401615:	3c ff                	cmp    $0xff,%al
  401617:	74 52                	je     40166b <main+0x14c>
  401619:	0f be f0             	movsbl %al,%esi
  40161c:	83 e8 61             	sub    $0x61,%eax
  40161f:	3c 10                	cmp    $0x10,%al
  401621:	77 31                	ja     401654 <main+0x135>
  401623:	0f b6 c0             	movzbl %al,%eax
  401626:	ff 24 c5 78 32 40 00 	jmpq   *0x403278(,%rax,8)
  40162d:	ba 0a 00 00 00       	mov    $0xa,%edx
  401632:	be 00 00 00 00       	mov    $0x0,%esi
  401637:	48 8b 3d a2 4e 00 00 	mov    0x4ea2(%rip),%rdi        # 4064e0 <optarg@@GLIBC_2.2.5>
  40163e:	e8 1d fb ff ff       	callq  401160 <strtol@plt>
  401643:	41 89 c5             	mov    %eax,%r13d
  401646:	eb c0                	jmp    401608 <main+0xe9>
  401648:	c7 05 56 4e 00 00 00 	movl   $0x0,0x4e56(%rip)        # 4064a8 <notify>
  40164f:	00 00 00 
  401652:	eb b4                	jmp    401608 <main+0xe9>
  401654:	bf 57 32 40 00       	mov    $0x403257,%edi
  401659:	b8 00 00 00 00       	mov    $0x0,%eax
  40165e:	e8 5d fa ff ff       	callq  4010c0 <printf@plt>
  401663:	48 8b 3b             	mov    (%rbx),%rdi
  401666:	e8 eb fc ff ff       	callq  401356 <usage>
  40166b:	be 00 00 00 00       	mov    $0x0,%esi
  401670:	44 89 ef             	mov    %r13d,%edi
  401673:	e8 5e fd ff ff       	callq  4013d6 <initialize_target>
  401678:	83 3d d1 4e 00 00 00 	cmpl   $0x0,0x4ed1(%rip)        # 406550 <is_checker>
  40167f:	74 09                	je     40168a <main+0x16b>
  401681:	44 39 35 c0 4e 00 00 	cmp    %r14d,0x4ec0(%rip)        # 406548 <authkey>
  401688:	75 2f                	jne    4016b9 <main+0x19a>
  40168a:	8b 35 bc 4e 00 00    	mov    0x4ebc(%rip),%esi        # 40654c <cookie>
  401690:	bf 6a 32 40 00       	mov    $0x40326a,%edi
  401695:	b8 00 00 00 00       	mov    $0x0,%eax
  40169a:	e8 21 fa ff ff       	callq  4010c0 <printf@plt>
  40169f:	48 8b 3d 0a 4e 00 00 	mov    0x4e0a(%rip),%rdi        # 4064b0 <buf_offset>
  4016a6:	e8 72 0c 00 00       	callq  40231d <stable_launch>
  4016ab:	b8 00 00 00 00       	mov    $0x0,%eax
  4016b0:	5b                   	pop    %rbx
  4016b1:	5d                   	pop    %rbp
  4016b2:	41 5c                	pop    %r12
  4016b4:	41 5d                	pop    %r13
  4016b6:	41 5e                	pop    %r14
  4016b8:	c3                   	retq   
  4016b9:	44 89 f6             	mov    %r14d,%esi
  4016bc:	bf 90 31 40 00       	mov    $0x403190,%edi
  4016c1:	b8 00 00 00 00       	mov    $0x0,%eax
  4016c6:	e8 f5 f9 ff ff       	callq  4010c0 <printf@plt>
  4016cb:	b8 00 00 00 00       	mov    $0x0,%eax
  4016d0:	e8 91 07 00 00       	callq  401e66 <check_fail>
  4016d5:	eb b3                	jmp    40168a <main+0x16b>

00000000004016d7 <scramble>:
  4016d7:	b8 00 00 00 00       	mov    $0x0,%eax
  4016dc:	eb 11                	jmp    4016ef <scramble+0x18>
  4016de:	69 d0 ab be 00 00    	imul   $0xbeab,%eax,%edx
  4016e4:	01 fa                	add    %edi,%edx
  4016e6:	89 c1                	mov    %eax,%ecx
  4016e8:	89 54 8c c8          	mov    %edx,-0x38(%rsp,%rcx,4)
  4016ec:	83 c0 01             	add    $0x1,%eax
  4016ef:	83 f8 09             	cmp    $0x9,%eax
  4016f2:	76 ea                	jbe    4016de <scramble+0x7>
  4016f4:	8b 44 24 cc          	mov    -0x34(%rsp),%eax
  4016f8:	69 c0 d6 69 00 00    	imul   $0x69d6,%eax,%eax
  4016fe:	89 44 24 cc          	mov    %eax,-0x34(%rsp)
  401702:	8b 44 24 e0          	mov    -0x20(%rsp),%eax
  401706:	69 c0 e2 3f 00 00    	imul   $0x3fe2,%eax,%eax
  40170c:	89 44 24 e0          	mov    %eax,-0x20(%rsp)
  401710:	8b 44 24 d8          	mov    -0x28(%rsp),%eax
  401714:	69 c0 e3 22 00 00    	imul   $0x22e3,%eax,%eax
  40171a:	89 44 24 d8          	mov    %eax,-0x28(%rsp)
  40171e:	8b 44 24 e4          	mov    -0x1c(%rsp),%eax
  401722:	69 c0 c9 76 00 00    	imul   $0x76c9,%eax,%eax
  401728:	89 44 24 e4          	mov    %eax,-0x1c(%rsp)
  40172c:	8b 44 24 e0          	mov    -0x20(%rsp),%eax
  401730:	69 c0 f9 88 00 00    	imul   $0x88f9,%eax,%eax
  401736:	89 44 24 e0          	mov    %eax,-0x20(%rsp)
  40173a:	8b 44 24 d8          	mov    -0x28(%rsp),%eax
  40173e:	69 c0 ff 4f 00 00    	imul   $0x4fff,%eax,%eax
  401744:	89 44 24 d8          	mov    %eax,-0x28(%rsp)
  401748:	8b 44 24 e4          	mov    -0x1c(%rsp),%eax
  40174c:	69 c0 f0 f6 00 00    	imul   $0xf6f0,%eax,%eax
  401752:	89 44 24 e4          	mov    %eax,-0x1c(%rsp)
  401756:	8b 44 24 d0          	mov    -0x30(%rsp),%eax
  40175a:	69 c0 7a 82 00 00    	imul   $0x827a,%eax,%eax
  401760:	89 44 24 d0          	mov    %eax,-0x30(%rsp)
  401764:	8b 44 24 ec          	mov    -0x14(%rsp),%eax
  401768:	69 c0 06 0a 00 00    	imul   $0xa06,%eax,%eax
  40176e:	89 44 24 ec          	mov    %eax,-0x14(%rsp)
  401772:	8b 44 24 ec          	mov    -0x14(%rsp),%eax
  401776:	69 c0 51 ee 00 00    	imul   $0xee51,%eax,%eax
  40177c:	89 44 24 ec          	mov    %eax,-0x14(%rsp)
  401780:	8b 44 24 e0          	mov    -0x20(%rsp),%eax
  401784:	69 c0 fa 1a 00 00    	imul   $0x1afa,%eax,%eax
  40178a:	89 44 24 e0          	mov    %eax,-0x20(%rsp)
  40178e:	8b 44 24 cc          	mov    -0x34(%rsp),%eax
  401792:	69 c0 73 d1 00 00    	imul   $0xd173,%eax,%eax
  401798:	89 44 24 cc          	mov    %eax,-0x34(%rsp)
  40179c:	8b 44 24 dc          	mov    -0x24(%rsp),%eax
  4017a0:	69 c0 1b c5 00 00    	imul   $0xc51b,%eax,%eax
  4017a6:	89 44 24 dc          	mov    %eax,-0x24(%rsp)
  4017aa:	8b 44 24 e0          	mov    -0x20(%rsp),%eax
  4017ae:	69 c0 26 a9 00 00    	imul   $0xa926,%eax,%eax
  4017b4:	89 44 24 e0          	mov    %eax,-0x20(%rsp)
  4017b8:	8b 44 24 d0          	mov    -0x30(%rsp),%eax
  4017bc:	69 c0 77 7e 00 00    	imul   $0x7e77,%eax,%eax
  4017c2:	89 44 24 d0          	mov    %eax,-0x30(%rsp)
  4017c6:	8b 44 24 cc          	mov    -0x34(%rsp),%eax
  4017ca:	69 c0 1f ed 00 00    	imul   $0xed1f,%eax,%eax
  4017d0:	89 44 24 cc          	mov    %eax,-0x34(%rsp)
  4017d4:	8b 44 24 cc          	mov    -0x34(%rsp),%eax
  4017d8:	69 c0 38 d7 00 00    	imul   $0xd738,%eax,%eax
  4017de:	89 44 24 cc          	mov    %eax,-0x34(%rsp)
  4017e2:	8b 44 24 d4          	mov    -0x2c(%rsp),%eax
  4017e6:	69 c0 35 08 00 00    	imul   $0x835,%eax,%eax
  4017ec:	89 44 24 d4          	mov    %eax,-0x2c(%rsp)
  4017f0:	8b 44 24 d8          	mov    -0x28(%rsp),%eax
  4017f4:	69 c0 06 8a 00 00    	imul   $0x8a06,%eax,%eax
  4017fa:	89 44 24 d8          	mov    %eax,-0x28(%rsp)
  4017fe:	8b 44 24 e4          	mov    -0x1c(%rsp),%eax
  401802:	69 c0 34 bd 00 00    	imul   $0xbd34,%eax,%eax
  401808:	89 44 24 e4          	mov    %eax,-0x1c(%rsp)
  40180c:	8b 44 24 dc          	mov    -0x24(%rsp),%eax
  401810:	69 c0 3f 65 00 00    	imul   $0x653f,%eax,%eax
  401816:	89 44 24 dc          	mov    %eax,-0x24(%rsp)
  40181a:	8b 44 24 e4          	mov    -0x1c(%rsp),%eax
  40181e:	69 c0 2d 1c 00 00    	imul   $0x1c2d,%eax,%eax
  401824:	89 44 24 e4          	mov    %eax,-0x1c(%rsp)
  401828:	8b 44 24 e0          	mov    -0x20(%rsp),%eax
  40182c:	69 c0 c1 28 00 00    	imul   $0x28c1,%eax,%eax
  401832:	89 44 24 e0          	mov    %eax,-0x20(%rsp)
  401836:	8b 44 24 ec          	mov    -0x14(%rsp),%eax
  40183a:	69 c0 2b 75 00 00    	imul   $0x752b,%eax,%eax
  401840:	89 44 24 ec          	mov    %eax,-0x14(%rsp)
  401844:	8b 44 24 e0          	mov    -0x20(%rsp),%eax
  401848:	69 c0 7d c6 00 00    	imul   $0xc67d,%eax,%eax
  40184e:	89 44 24 e0          	mov    %eax,-0x20(%rsp)
  401852:	8b 44 24 ec          	mov    -0x14(%rsp),%eax
  401856:	69 c0 dc fd 00 00    	imul   $0xfddc,%eax,%eax
  40185c:	89 44 24 ec          	mov    %eax,-0x14(%rsp)
  401860:	8b 44 24 d4          	mov    -0x2c(%rsp),%eax
  401864:	69 c0 f2 78 00 00    	imul   $0x78f2,%eax,%eax
  40186a:	89 44 24 d4          	mov    %eax,-0x2c(%rsp)
  40186e:	8b 44 24 d4          	mov    -0x2c(%rsp),%eax
  401872:	69 c0 e8 4f 00 00    	imul   $0x4fe8,%eax,%eax
  401878:	89 44 24 d4          	mov    %eax,-0x2c(%rsp)
  40187c:	8b 44 24 e8          	mov    -0x18(%rsp),%eax
  401880:	69 c0 a7 0e 00 00    	imul   $0xea7,%eax,%eax
  401886:	89 44 24 e8          	mov    %eax,-0x18(%rsp)
  40188a:	8b 44 24 d8          	mov    -0x28(%rsp),%eax
  40188e:	69 c0 81 6c 00 00    	imul   $0x6c81,%eax,%eax
  401894:	89 44 24 d8          	mov    %eax,-0x28(%rsp)
  401898:	8b 44 24 d0          	mov    -0x30(%rsp),%eax
  40189c:	69 c0 cd 68 00 00    	imul   $0x68cd,%eax,%eax
  4018a2:	89 44 24 d0          	mov    %eax,-0x30(%rsp)
  4018a6:	8b 44 24 ec          	mov    -0x14(%rsp),%eax
  4018aa:	69 c0 6b 75 00 00    	imul   $0x756b,%eax,%eax
  4018b0:	89 44 24 ec          	mov    %eax,-0x14(%rsp)
  4018b4:	8b 44 24 d8          	mov    -0x28(%rsp),%eax
  4018b8:	69 c0 a2 86 00 00    	imul   $0x86a2,%eax,%eax
  4018be:	89 44 24 d8          	mov    %eax,-0x28(%rsp)
  4018c2:	8b 44 24 d8          	mov    -0x28(%rsp),%eax
  4018c6:	69 c0 20 3a 00 00    	imul   $0x3a20,%eax,%eax
  4018cc:	89 44 24 d8          	mov    %eax,-0x28(%rsp)
  4018d0:	8b 44 24 e4          	mov    -0x1c(%rsp),%eax
  4018d4:	69 c0 9f fc 00 00    	imul   $0xfc9f,%eax,%eax
  4018da:	89 44 24 e4          	mov    %eax,-0x1c(%rsp)
  4018de:	8b 44 24 d0          	mov    -0x30(%rsp),%eax
  4018e2:	69 c0 a7 23 00 00    	imul   $0x23a7,%eax,%eax
  4018e8:	89 44 24 d0          	mov    %eax,-0x30(%rsp)
  4018ec:	8b 44 24 e0          	mov    -0x20(%rsp),%eax
  4018f0:	69 c0 88 04 00 00    	imul   $0x488,%eax,%eax
  4018f6:	89 44 24 e0          	mov    %eax,-0x20(%rsp)
  4018fa:	8b 44 24 dc          	mov    -0x24(%rsp),%eax
  4018fe:	69 c0 0d be 00 00    	imul   $0xbe0d,%eax,%eax
  401904:	89 44 24 dc          	mov    %eax,-0x24(%rsp)
  401908:	8b 44 24 d0          	mov    -0x30(%rsp),%eax
  40190c:	69 c0 7c de 00 00    	imul   $0xde7c,%eax,%eax
  401912:	89 44 24 d0          	mov    %eax,-0x30(%rsp)
  401916:	8b 44 24 ec          	mov    -0x14(%rsp),%eax
  40191a:	69 c0 10 60 00 00    	imul   $0x6010,%eax,%eax
  401920:	89 44 24 ec          	mov    %eax,-0x14(%rsp)
  401924:	8b 44 24 dc          	mov    -0x24(%rsp),%eax
  401928:	69 c0 b4 96 00 00    	imul   $0x96b4,%eax,%eax
  40192e:	89 44 24 dc          	mov    %eax,-0x24(%rsp)
  401932:	8b 44 24 d8          	mov    -0x28(%rsp),%eax
  401936:	69 c0 71 86 00 00    	imul   $0x8671,%eax,%eax
  40193c:	89 44 24 d8          	mov    %eax,-0x28(%rsp)
  401940:	8b 44 24 d4          	mov    -0x2c(%rsp),%eax
  401944:	69 c0 3c 2d 00 00    	imul   $0x2d3c,%eax,%eax
  40194a:	89 44 24 d4          	mov    %eax,-0x2c(%rsp)
  40194e:	8b 44 24 ec          	mov    -0x14(%rsp),%eax
  401952:	69 c0 b3 4d 00 00    	imul   $0x4db3,%eax,%eax
  401958:	89 44 24 ec          	mov    %eax,-0x14(%rsp)
  40195c:	8b 44 24 cc          	mov    -0x34(%rsp),%eax
  401960:	69 c0 68 cf 00 00    	imul   $0xcf68,%eax,%eax
  401966:	89 44 24 cc          	mov    %eax,-0x34(%rsp)
  40196a:	8b 44 24 e4          	mov    -0x1c(%rsp),%eax
  40196e:	69 c0 01 c9 00 00    	imul   $0xc901,%eax,%eax
  401974:	89 44 24 e4          	mov    %eax,-0x1c(%rsp)
  401978:	8b 44 24 c8          	mov    -0x38(%rsp),%eax
  40197c:	69 c0 d5 13 00 00    	imul   $0x13d5,%eax,%eax
  401982:	89 44 24 c8          	mov    %eax,-0x38(%rsp)
  401986:	8b 44 24 d4          	mov    -0x2c(%rsp),%eax
  40198a:	69 c0 3a 78 00 00    	imul   $0x783a,%eax,%eax
  401990:	89 44 24 d4          	mov    %eax,-0x2c(%rsp)
  401994:	8b 44 24 d0          	mov    -0x30(%rsp),%eax
  401998:	69 c0 0d bc 00 00    	imul   $0xbc0d,%eax,%eax
  40199e:	89 44 24 d0          	mov    %eax,-0x30(%rsp)
  4019a2:	8b 44 24 e8          	mov    -0x18(%rsp),%eax
  4019a6:	69 c0 1f ab 00 00    	imul   $0xab1f,%eax,%eax
  4019ac:	89 44 24 e8          	mov    %eax,-0x18(%rsp)
  4019b0:	8b 44 24 c8          	mov    -0x38(%rsp),%eax
  4019b4:	69 c0 af a9 00 00    	imul   $0xa9af,%eax,%eax
  4019ba:	89 44 24 c8          	mov    %eax,-0x38(%rsp)
  4019be:	8b 44 24 d8          	mov    -0x28(%rsp),%eax
  4019c2:	69 c0 8a 1a 00 00    	imul   $0x1a8a,%eax,%eax
  4019c8:	89 44 24 d8          	mov    %eax,-0x28(%rsp)
  4019cc:	8b 44 24 d4          	mov    -0x2c(%rsp),%eax
  4019d0:	69 c0 9b 0e 00 00    	imul   $0xe9b,%eax,%eax
  4019d6:	89 44 24 d4          	mov    %eax,-0x2c(%rsp)
  4019da:	8b 44 24 cc          	mov    -0x34(%rsp),%eax
  4019de:	69 c0 81 db 00 00    	imul   $0xdb81,%eax,%eax
  4019e4:	89 44 24 cc          	mov    %eax,-0x34(%rsp)
  4019e8:	8b 44 24 e0          	mov    -0x20(%rsp),%eax
  4019ec:	69 c0 cf 0b 00 00    	imul   $0xbcf,%eax,%eax
  4019f2:	89 44 24 e0          	mov    %eax,-0x20(%rsp)
  4019f6:	8b 44 24 e4          	mov    -0x1c(%rsp),%eax
  4019fa:	69 c0 11 92 00 00    	imul   $0x9211,%eax,%eax
  401a00:	89 44 24 e4          	mov    %eax,-0x1c(%rsp)
  401a04:	8b 44 24 d0          	mov    -0x30(%rsp),%eax
  401a08:	69 c0 7f 99 00 00    	imul   $0x997f,%eax,%eax
  401a0e:	89 44 24 d0          	mov    %eax,-0x30(%rsp)
  401a12:	8b 44 24 d4          	mov    -0x2c(%rsp),%eax
  401a16:	69 c0 29 b2 00 00    	imul   $0xb229,%eax,%eax
  401a1c:	89 44 24 d4          	mov    %eax,-0x2c(%rsp)
  401a20:	8b 44 24 d8          	mov    -0x28(%rsp),%eax
  401a24:	69 c0 db ee 00 00    	imul   $0xeedb,%eax,%eax
  401a2a:	89 44 24 d8          	mov    %eax,-0x28(%rsp)
  401a2e:	8b 44 24 ec          	mov    -0x14(%rsp),%eax
  401a32:	69 c0 9f 02 00 00    	imul   $0x29f,%eax,%eax
  401a38:	89 44 24 ec          	mov    %eax,-0x14(%rsp)
  401a3c:	8b 44 24 e8          	mov    -0x18(%rsp),%eax
  401a40:	69 c0 11 ba 00 00    	imul   $0xba11,%eax,%eax
  401a46:	89 44 24 e8          	mov    %eax,-0x18(%rsp)
  401a4a:	8b 44 24 d4          	mov    -0x2c(%rsp),%eax
  401a4e:	69 c0 78 f6 00 00    	imul   $0xf678,%eax,%eax
  401a54:	89 44 24 d4          	mov    %eax,-0x2c(%rsp)
  401a58:	8b 44 24 e0          	mov    -0x20(%rsp),%eax
  401a5c:	69 c0 0d 0a 00 00    	imul   $0xa0d,%eax,%eax
  401a62:	89 44 24 e0          	mov    %eax,-0x20(%rsp)
  401a66:	8b 44 24 c8          	mov    -0x38(%rsp),%eax
  401a6a:	69 c0 5e 68 00 00    	imul   $0x685e,%eax,%eax
  401a70:	89 44 24 c8          	mov    %eax,-0x38(%rsp)
  401a74:	8b 44 24 e0          	mov    -0x20(%rsp),%eax
  401a78:	69 c0 0d 21 00 00    	imul   $0x210d,%eax,%eax
  401a7e:	89 44 24 e0          	mov    %eax,-0x20(%rsp)
  401a82:	8b 44 24 d0          	mov    -0x30(%rsp),%eax
  401a86:	69 c0 c6 7e 00 00    	imul   $0x7ec6,%eax,%eax
  401a8c:	89 44 24 d0          	mov    %eax,-0x30(%rsp)
  401a90:	8b 44 24 c8          	mov    -0x38(%rsp),%eax
  401a94:	69 c0 44 e2 00 00    	imul   $0xe244,%eax,%eax
  401a9a:	89 44 24 c8          	mov    %eax,-0x38(%rsp)
  401a9e:	8b 44 24 e4          	mov    -0x1c(%rsp),%eax
  401aa2:	69 c0 f4 78 00 00    	imul   $0x78f4,%eax,%eax
  401aa8:	89 44 24 e4          	mov    %eax,-0x1c(%rsp)
  401aac:	8b 44 24 e8          	mov    -0x18(%rsp),%eax
  401ab0:	69 c0 e7 71 00 00    	imul   $0x71e7,%eax,%eax
  401ab6:	89 44 24 e8          	mov    %eax,-0x18(%rsp)
  401aba:	8b 44 24 d8          	mov    -0x28(%rsp),%eax
  401abe:	69 c0 f7 dd 00 00    	imul   $0xddf7,%eax,%eax
  401ac4:	89 44 24 d8          	mov    %eax,-0x28(%rsp)
  401ac8:	8b 44 24 d8          	mov    -0x28(%rsp),%eax
  401acc:	69 c0 08 90 00 00    	imul   $0x9008,%eax,%eax
  401ad2:	89 44 24 d8          	mov    %eax,-0x28(%rsp)
  401ad6:	8b 44 24 cc          	mov    -0x34(%rsp),%eax
  401ada:	69 c0 39 20 00 00    	imul   $0x2039,%eax,%eax
  401ae0:	89 44 24 cc          	mov    %eax,-0x34(%rsp)
  401ae4:	8b 44 24 e0          	mov    -0x20(%rsp),%eax
  401ae8:	69 c0 8a 88 00 00    	imul   $0x888a,%eax,%eax
  401aee:	89 44 24 e0          	mov    %eax,-0x20(%rsp)
  401af2:	8b 44 24 d4          	mov    -0x2c(%rsp),%eax
  401af6:	69 c0 42 f0 00 00    	imul   $0xf042,%eax,%eax
  401afc:	89 44 24 d4          	mov    %eax,-0x2c(%rsp)
  401b00:	8b 44 24 e4          	mov    -0x1c(%rsp),%eax
  401b04:	69 c0 3e d2 00 00    	imul   $0xd23e,%eax,%eax
  401b0a:	89 44 24 e4          	mov    %eax,-0x1c(%rsp)
  401b0e:	8b 44 24 c8          	mov    -0x38(%rsp),%eax
  401b12:	69 c0 a9 35 00 00    	imul   $0x35a9,%eax,%eax
  401b18:	89 44 24 c8          	mov    %eax,-0x38(%rsp)
  401b1c:	8b 44 24 dc          	mov    -0x24(%rsp),%eax
  401b20:	69 c0 82 be 00 00    	imul   $0xbe82,%eax,%eax
  401b26:	89 44 24 dc          	mov    %eax,-0x24(%rsp)
  401b2a:	8b 44 24 cc          	mov    -0x34(%rsp),%eax
  401b2e:	69 c0 37 5a 00 00    	imul   $0x5a37,%eax,%eax
  401b34:	89 44 24 cc          	mov    %eax,-0x34(%rsp)
  401b38:	8b 44 24 d4          	mov    -0x2c(%rsp),%eax
  401b3c:	69 c0 d4 9a 00 00    	imul   $0x9ad4,%eax,%eax
  401b42:	89 44 24 d4          	mov    %eax,-0x2c(%rsp)
  401b46:	8b 44 24 d4          	mov    -0x2c(%rsp),%eax
  401b4a:	69 c0 a9 8e 00 00    	imul   $0x8ea9,%eax,%eax
  401b50:	89 44 24 d4          	mov    %eax,-0x2c(%rsp)
  401b54:	8b 44 24 cc          	mov    -0x34(%rsp),%eax
  401b58:	69 c0 13 d6 00 00    	imul   $0xd613,%eax,%eax
  401b5e:	89 44 24 cc          	mov    %eax,-0x34(%rsp)
  401b62:	8b 44 24 e8          	mov    -0x18(%rsp),%eax
  401b66:	69 c0 9d 86 00 00    	imul   $0x869d,%eax,%eax
  401b6c:	89 44 24 e8          	mov    %eax,-0x18(%rsp)
  401b70:	8b 44 24 d8          	mov    -0x28(%rsp),%eax
  401b74:	69 c0 bf a6 00 00    	imul   $0xa6bf,%eax,%eax
  401b7a:	89 44 24 d8          	mov    %eax,-0x28(%rsp)
  401b7e:	8b 44 24 e8          	mov    -0x18(%rsp),%eax
  401b82:	69 c0 37 a9 00 00    	imul   $0xa937,%eax,%eax
  401b88:	89 44 24 e8          	mov    %eax,-0x18(%rsp)
  401b8c:	8b 44 24 e8          	mov    -0x18(%rsp),%eax
  401b90:	69 c0 08 54 00 00    	imul   $0x5408,%eax,%eax
  401b96:	89 44 24 e8          	mov    %eax,-0x18(%rsp)
  401b9a:	8b 44 24 d0          	mov    -0x30(%rsp),%eax
  401b9e:	69 c0 5c 96 00 00    	imul   $0x965c,%eax,%eax
  401ba4:	89 44 24 d0          	mov    %eax,-0x30(%rsp)
  401ba8:	8b 44 24 dc          	mov    -0x24(%rsp),%eax
  401bac:	69 c0 36 f7 00 00    	imul   $0xf736,%eax,%eax
  401bb2:	89 44 24 dc          	mov    %eax,-0x24(%rsp)
  401bb6:	8b 44 24 c8          	mov    -0x38(%rsp),%eax
  401bba:	69 c0 97 0d 00 00    	imul   $0xd97,%eax,%eax
  401bc0:	89 44 24 c8          	mov    %eax,-0x38(%rsp)
  401bc4:	8b 44 24 e4          	mov    -0x1c(%rsp),%eax
  401bc8:	69 c0 f7 88 00 00    	imul   $0x88f7,%eax,%eax
  401bce:	89 44 24 e4          	mov    %eax,-0x1c(%rsp)
  401bd2:	8b 44 24 dc          	mov    -0x24(%rsp),%eax
  401bd6:	69 c0 26 f7 00 00    	imul   $0xf726,%eax,%eax
  401bdc:	89 44 24 dc          	mov    %eax,-0x24(%rsp)
  401be0:	8b 44 24 d4          	mov    -0x2c(%rsp),%eax
  401be4:	69 c0 bb f0 00 00    	imul   $0xf0bb,%eax,%eax
  401bea:	89 44 24 d4          	mov    %eax,-0x2c(%rsp)
  401bee:	8b 44 24 e4          	mov    -0x1c(%rsp),%eax
  401bf2:	69 c0 85 e7 00 00    	imul   $0xe785,%eax,%eax
  401bf8:	89 44 24 e4          	mov    %eax,-0x1c(%rsp)
  401bfc:	8b 44 24 c8          	mov    -0x38(%rsp),%eax
  401c00:	69 c0 f0 58 00 00    	imul   $0x58f0,%eax,%eax
  401c06:	89 44 24 c8          	mov    %eax,-0x38(%rsp)
  401c0a:	8b 44 24 d0          	mov    -0x30(%rsp),%eax
  401c0e:	69 c0 cc 77 00 00    	imul   $0x77cc,%eax,%eax
  401c14:	89 44 24 d0          	mov    %eax,-0x30(%rsp)
  401c18:	8b 44 24 cc          	mov    -0x34(%rsp),%eax
  401c1c:	69 c0 52 04 00 00    	imul   $0x452,%eax,%eax
  401c22:	89 44 24 cc          	mov    %eax,-0x34(%rsp)
  401c26:	8b 44 24 dc          	mov    -0x24(%rsp),%eax
  401c2a:	69 c0 a5 af 00 00    	imul   $0xafa5,%eax,%eax
  401c30:	89 44 24 dc          	mov    %eax,-0x24(%rsp)
  401c34:	8b 44 24 dc          	mov    -0x24(%rsp),%eax
  401c38:	69 c0 e4 13 00 00    	imul   $0x13e4,%eax,%eax
  401c3e:	89 44 24 dc          	mov    %eax,-0x24(%rsp)
  401c42:	b8 00 00 00 00       	mov    $0x0,%eax
  401c47:	ba 00 00 00 00       	mov    $0x0,%edx
  401c4c:	eb 0b                	jmp    401c59 <scramble+0x582>
  401c4e:	89 c1                	mov    %eax,%ecx
  401c50:	8b 4c 8c c8          	mov    -0x38(%rsp,%rcx,4),%ecx
  401c54:	01 ca                	add    %ecx,%edx
  401c56:	83 c0 01             	add    $0x1,%eax
  401c59:	83 f8 09             	cmp    $0x9,%eax
  401c5c:	76 f0                	jbe    401c4e <scramble+0x577>
  401c5e:	89 d0                	mov    %edx,%eax
  401c60:	c3                   	retq   

0000000000401c61 <getbuf>:
  401c61:	48 83 ec 28          	sub    $0x28,%rsp
  401c65:	48 89 e7             	mov    %rsp,%rdi
  401c68:	e8 28 02 00 00       	callq  401e95 <Gets>
  401c6d:	b8 01 00 00 00       	mov    $0x1,%eax
  401c72:	48 83 c4 28          	add    $0x28,%rsp
  401c76:	c3                   	retq   

0000000000401c77 <touch1>:
  401c77:	48 83 ec 08          	sub    $0x8,%rsp
  401c7b:	c7 05 bf 48 00 00 01 	movl   $0x1,0x48bf(%rip)        # 406544 <vlevel>
  401c82:	00 00 00 
  401c85:	bf 58 36 40 00       	mov    $0x403658,%edi
  401c8a:	e8 f1 f3 ff ff       	callq  401080 <puts@plt>
  401c8f:	bf 01 00 00 00       	mov    $0x1,%edi
  401c94:	e8 ef 03 00 00       	callq  402088 <validate>
  401c99:	bf 00 00 00 00       	mov    $0x0,%edi
  401c9e:	e8 6d f5 ff ff       	callq  401210 <exit@plt>

0000000000401ca3 <touch2>:
  401ca3:	48 83 ec 08          	sub    $0x8,%rsp
  401ca7:	89 fe                	mov    %edi,%esi
  401ca9:	c7 05 91 48 00 00 02 	movl   $0x2,0x4891(%rip)        # 406544 <vlevel>
  401cb0:	00 00 00 
  401cb3:	39 3d 93 48 00 00    	cmp    %edi,0x4893(%rip)        # 40654c <cookie>
  401cb9:	74 23                	je     401cde <touch2+0x3b>
  401cbb:	bf a8 36 40 00       	mov    $0x4036a8,%edi
  401cc0:	b8 00 00 00 00       	mov    $0x0,%eax
  401cc5:	e8 f6 f3 ff ff       	callq  4010c0 <printf@plt>
  401cca:	bf 02 00 00 00       	mov    $0x2,%edi
  401ccf:	e8 66 04 00 00       	callq  40213a <fail>
  401cd4:	bf 00 00 00 00       	mov    $0x0,%edi
  401cd9:	e8 32 f5 ff ff       	callq  401210 <exit@plt>
  401cde:	bf 80 36 40 00       	mov    $0x403680,%edi
  401ce3:	b8 00 00 00 00       	mov    $0x0,%eax
  401ce8:	e8 d3 f3 ff ff       	callq  4010c0 <printf@plt>
  401ced:	bf 02 00 00 00       	mov    $0x2,%edi
  401cf2:	e8 91 03 00 00       	callq  402088 <validate>
  401cf7:	eb db                	jmp    401cd4 <touch2+0x31>

0000000000401cf9 <hexmatch>:
  401cf9:	41 54                	push   %r12
  401cfb:	55                   	push   %rbp
  401cfc:	53                   	push   %rbx
  401cfd:	48 83 ec 70          	sub    $0x70,%rsp
  401d01:	89 fd                	mov    %edi,%ebp
  401d03:	48 89 f3             	mov    %rsi,%rbx
  401d06:	e8 85 f4 ff ff       	callq  401190 <random@plt>
  401d0b:	48 89 c1             	mov    %rax,%rcx
  401d0e:	48 ba 0b d7 a3 70 3d 	movabs $0xa3d70a3d70a3d70b,%rdx
  401d15:	0a d7 a3 
  401d18:	48 f7 ea             	imul   %rdx
  401d1b:	48 01 ca             	add    %rcx,%rdx
  401d1e:	48 c1 fa 06          	sar    $0x6,%rdx
  401d22:	48 89 c8             	mov    %rcx,%rax
  401d25:	48 c1 f8 3f          	sar    $0x3f,%rax
  401d29:	48 29 c2             	sub    %rax,%rdx
  401d2c:	48 8d 04 92          	lea    (%rdx,%rdx,4),%rax
  401d30:	48 8d 04 80          	lea    (%rax,%rax,4),%rax
  401d34:	48 c1 e0 02          	shl    $0x2,%rax
  401d38:	48 29 c1             	sub    %rax,%rcx
  401d3b:	4c 8d 24 0c          	lea    (%rsp,%rcx,1),%r12
  401d3f:	89 ea                	mov    %ebp,%edx
  401d41:	be 75 36 40 00       	mov    $0x403675,%esi
  401d46:	4c 89 e7             	mov    %r12,%rdi
  401d49:	b8 00 00 00 00       	mov    $0x0,%eax
  401d4e:	e8 ad f4 ff ff       	callq  401200 <sprintf@plt>
  401d53:	ba 09 00 00 00       	mov    $0x9,%edx
  401d58:	4c 89 e6             	mov    %r12,%rsi
  401d5b:	48 89 df             	mov    %rbx,%rdi
  401d5e:	e8 fd f2 ff ff       	callq  401060 <strncmp@plt>
  401d63:	85 c0                	test   %eax,%eax
  401d65:	0f 94 c0             	sete   %al
  401d68:	0f b6 c0             	movzbl %al,%eax
  401d6b:	48 83 c4 70          	add    $0x70,%rsp
  401d6f:	5b                   	pop    %rbx
  401d70:	5d                   	pop    %rbp
  401d71:	41 5c                	pop    %r12
  401d73:	c3                   	retq   

0000000000401d74 <touch3>:
  401d74:	53                   	push   %rbx
  401d75:	48 89 fb             	mov    %rdi,%rbx
  401d78:	c7 05 c2 47 00 00 03 	movl   $0x3,0x47c2(%rip)        # 406544 <vlevel>
  401d7f:	00 00 00 
  401d82:	48 89 fe             	mov    %rdi,%rsi
  401d85:	8b 3d c1 47 00 00    	mov    0x47c1(%rip),%edi        # 40654c <cookie>
  401d8b:	e8 69 ff ff ff       	callq  401cf9 <hexmatch>
  401d90:	85 c0                	test   %eax,%eax
  401d92:	74 26                	je     401dba <touch3+0x46>
  401d94:	48 89 de             	mov    %rbx,%rsi
  401d97:	bf d0 36 40 00       	mov    $0x4036d0,%edi
  401d9c:	b8 00 00 00 00       	mov    $0x0,%eax
  401da1:	e8 1a f3 ff ff       	callq  4010c0 <printf@plt>
  401da6:	bf 03 00 00 00       	mov    $0x3,%edi
  401dab:	e8 d8 02 00 00       	callq  402088 <validate>
  401db0:	bf 00 00 00 00       	mov    $0x0,%edi
  401db5:	e8 56 f4 ff ff       	callq  401210 <exit@plt>
  401dba:	48 89 de             	mov    %rbx,%rsi
  401dbd:	bf f8 36 40 00       	mov    $0x4036f8,%edi
  401dc2:	b8 00 00 00 00       	mov    $0x0,%eax
  401dc7:	e8 f4 f2 ff ff       	callq  4010c0 <printf@plt>
  401dcc:	bf 03 00 00 00       	mov    $0x3,%edi
  401dd1:	e8 64 03 00 00       	callq  40213a <fail>
  401dd6:	eb d8                	jmp    401db0 <touch3+0x3c>

0000000000401dd8 <test>:
  401dd8:	48 83 ec 08          	sub    $0x8,%rsp
  401ddc:	b8 00 00 00 00       	mov    $0x0,%eax
  401de1:	e8 7b fe ff ff       	callq  401c61 <getbuf>
  401de6:	89 c6                	mov    %eax,%esi
  401de8:	bf 20 37 40 00       	mov    $0x403720,%edi
  401ded:	b8 00 00 00 00       	mov    $0x0,%eax
  401df2:	e8 c9 f2 ff ff       	callq  4010c0 <printf@plt>
  401df7:	48 83 c4 08          	add    $0x8,%rsp
  401dfb:	c3                   	retq   

0000000000401dfc <save_char>:
  401dfc:	8b 05 62 53 00 00    	mov    0x5362(%rip),%eax        # 407164 <gets_cnt>
  401e02:	3d ff 03 00 00       	cmp    $0x3ff,%eax
  401e07:	7f 49                	jg     401e52 <save_char+0x56>
  401e09:	89 f9                	mov    %edi,%ecx
  401e0b:	c0 e9 04             	shr    $0x4,%cl
  401e0e:	8d 14 40             	lea    (%rax,%rax,2),%edx
  401e11:	83 e1 0f             	and    $0xf,%ecx
  401e14:	0f b6 b1 40 3a 40 00 	movzbl 0x403a40(%rcx),%esi
  401e1b:	48 63 ca             	movslq %edx,%rcx
  401e1e:	40 88 b1 60 65 40 00 	mov    %sil,0x406560(%rcx)
  401e25:	8d 4a 01             	lea    0x1(%rdx),%ecx
  401e28:	83 e7 0f             	and    $0xf,%edi
  401e2b:	0f b6 b7 40 3a 40 00 	movzbl 0x403a40(%rdi),%esi
  401e32:	48 63 c9             	movslq %ecx,%rcx
  401e35:	40 88 b1 60 65 40 00 	mov    %sil,0x406560(%rcx)
  401e3c:	83 c2 02             	add    $0x2,%edx
  401e3f:	48 63 d2             	movslq %edx,%rdx
  401e42:	c6 82 60 65 40 00 20 	movb   $0x20,0x406560(%rdx)
  401e49:	83 c0 01             	add    $0x1,%eax
  401e4c:	89 05 12 53 00 00    	mov    %eax,0x5312(%rip)        # 407164 <gets_cnt>
  401e52:	c3                   	retq   

0000000000401e53 <save_term>:
  401e53:	8b 05 0b 53 00 00    	mov    0x530b(%rip),%eax        # 407164 <gets_cnt>
  401e59:	8d 04 40             	lea    (%rax,%rax,2),%eax
  401e5c:	48 98                	cltq   
  401e5e:	c6 80 60 65 40 00 00 	movb   $0x0,0x406560(%rax)
  401e65:	c3                   	retq   

0000000000401e66 <check_fail>:
  401e66:	48 83 ec 08          	sub    $0x8,%rsp
  401e6a:	0f be 35 d3 42 00 00 	movsbl 0x42d3(%rip),%esi        # 406144 <target_prefix>
  401e71:	b9 60 65 40 00       	mov    $0x406560,%ecx
  401e76:	8b 15 c4 46 00 00    	mov    0x46c4(%rip),%edx        # 406540 <check_level>
  401e7c:	bf 43 37 40 00       	mov    $0x403743,%edi
  401e81:	b8 00 00 00 00       	mov    $0x0,%eax
  401e86:	e8 35 f2 ff ff       	callq  4010c0 <printf@plt>
  401e8b:	bf 01 00 00 00       	mov    $0x1,%edi
  401e90:	e8 7b f3 ff ff       	callq  401210 <exit@plt>

0000000000401e95 <Gets>:
  401e95:	41 54                	push   %r12
  401e97:	55                   	push   %rbp
  401e98:	53                   	push   %rbx
  401e99:	49 89 fc             	mov    %rdi,%r12
  401e9c:	c7 05 be 52 00 00 00 	movl   $0x0,0x52be(%rip)        # 407164 <gets_cnt>
  401ea3:	00 00 00 
  401ea6:	48 89 fb             	mov    %rdi,%rbx
  401ea9:	eb 11                	jmp    401ebc <Gets+0x27>
  401eab:	48 8d 6b 01          	lea    0x1(%rbx),%rbp
  401eaf:	88 03                	mov    %al,(%rbx)
  401eb1:	0f b6 f8             	movzbl %al,%edi
  401eb4:	e8 43 ff ff ff       	callq  401dfc <save_char>
  401eb9:	48 89 eb             	mov    %rbp,%rbx
  401ebc:	48 8b 3d 75 46 00 00 	mov    0x4675(%rip),%rdi        # 406538 <infile>
  401ec3:	e8 78 f3 ff ff       	callq  401240 <getc@plt>
  401ec8:	83 f8 ff             	cmp    $0xffffffff,%eax
  401ecb:	74 05                	je     401ed2 <Gets+0x3d>
  401ecd:	83 f8 0a             	cmp    $0xa,%eax
  401ed0:	75 d9                	jne    401eab <Gets+0x16>
  401ed2:	c6 03 00             	movb   $0x0,(%rbx)
  401ed5:	b8 00 00 00 00       	mov    $0x0,%eax
  401eda:	e8 74 ff ff ff       	callq  401e53 <save_term>
  401edf:	4c 89 e0             	mov    %r12,%rax
  401ee2:	5b                   	pop    %rbx
  401ee3:	5d                   	pop    %rbp
  401ee4:	41 5c                	pop    %r12
  401ee6:	c3                   	retq   

0000000000401ee7 <notify_server>:
  401ee7:	83 3d 62 46 00 00 00 	cmpl   $0x0,0x4662(%rip)        # 406550 <is_checker>
  401eee:	0f 85 93 01 00 00    	jne    402087 <notify_server+0x1a0>
  401ef4:	55                   	push   %rbp
  401ef5:	53                   	push   %rbx
  401ef6:	48 81 ec 08 40 00 00 	sub    $0x4008,%rsp
  401efd:	89 fb                	mov    %edi,%ebx
  401eff:	81 3d 5b 52 00 00 9c 	cmpl   $0x1f9c,0x525b(%rip)        # 407164 <gets_cnt>
  401f06:	1f 00 00 
  401f09:	0f 8f ad 00 00 00    	jg     401fbc <notify_server+0xd5>
  401f0f:	44 0f be 0d 2d 42 00 	movsbl 0x422d(%rip),%r9d        # 406144 <target_prefix>
  401f16:	00 
  401f17:	83 3d 8a 45 00 00 00 	cmpl   $0x0,0x458a(%rip)        # 4064a8 <notify>
  401f1e:	0f 84 b1 00 00 00    	je     401fd5 <notify_server+0xee>
  401f24:	44 8b 05 1d 46 00 00 	mov    0x461d(%rip),%r8d        # 406548 <authkey>
  401f2b:	85 db                	test   %ebx,%ebx
  401f2d:	0f 84 ad 00 00 00    	je     401fe0 <notify_server+0xf9>
  401f33:	bd 59 37 40 00       	mov    $0x403759,%ebp
  401f38:	68 60 65 40 00       	pushq  $0x406560
  401f3d:	56                   	push   %rsi
  401f3e:	48 89 e9             	mov    %rbp,%rcx
  401f41:	8b 15 21 42 00 00    	mov    0x4221(%rip),%edx        # 406168 <target_id>
  401f47:	be 63 37 40 00       	mov    $0x403763,%esi
  401f4c:	48 8d bc 24 10 20 00 	lea    0x2010(%rsp),%rdi
  401f53:	00 
  401f54:	b8 00 00 00 00       	mov    $0x0,%eax
  401f59:	e8 a2 f2 ff ff       	callq  401200 <sprintf@plt>
  401f5e:	48 83 c4 10          	add    $0x10,%rsp
  401f62:	83 3d 3f 45 00 00 00 	cmpl   $0x0,0x453f(%rip)        # 4064a8 <notify>
  401f69:	0f 84 ab 00 00 00    	je     40201a <notify_server+0x133>
  401f6f:	85 db                	test   %ebx,%ebx
  401f71:	0f 84 8f 00 00 00    	je     402006 <notify_server+0x11f>
  401f77:	49 89 e1             	mov    %rsp,%r9
  401f7a:	41 b8 00 00 00 00    	mov    $0x0,%r8d
  401f80:	48 8d 8c 24 00 20 00 	lea    0x2000(%rsp),%rcx
  401f87:	00 
  401f88:	48 8b 15 e1 41 00 00 	mov    0x41e1(%rip),%rdx        # 406170 <lab>
  401f8f:	48 8b 35 0a 45 00 00 	mov    0x450a(%rip),%rsi        # 4064a0 <course>
  401f96:	48 8b 3d c3 41 00 00 	mov    0x41c3(%rip),%rdi        # 406160 <user_id>
  401f9d:	e8 5b 0f 00 00       	callq  402efd <driver_post>
  401fa2:	85 c0                	test   %eax,%eax
  401fa4:	78 44                	js     401fea <notify_server+0x103>
  401fa6:	bf a8 38 40 00       	mov    $0x4038a8,%edi
  401fab:	e8 d0 f0 ff ff       	callq  401080 <puts@plt>
  401fb0:	bf 8b 37 40 00       	mov    $0x40378b,%edi
  401fb5:	e8 c6 f0 ff ff       	callq  401080 <puts@plt>
  401fba:	eb 54                	jmp    402010 <notify_server+0x129>
  401fbc:	bf 78 38 40 00       	mov    $0x403878,%edi
  401fc1:	b8 00 00 00 00       	mov    $0x0,%eax
  401fc6:	e8 f5 f0 ff ff       	callq  4010c0 <printf@plt>
  401fcb:	bf 01 00 00 00       	mov    $0x1,%edi
  401fd0:	e8 3b f2 ff ff       	callq  401210 <exit@plt>
  401fd5:	41 b8 ff ff ff ff    	mov    $0xffffffff,%r8d
  401fdb:	e9 4b ff ff ff       	jmpq   401f2b <notify_server+0x44>
  401fe0:	bd 5e 37 40 00       	mov    $0x40375e,%ebp
  401fe5:	e9 4e ff ff ff       	jmpq   401f38 <notify_server+0x51>
  401fea:	48 89 e6             	mov    %rsp,%rsi
  401fed:	bf 7f 37 40 00       	mov    $0x40377f,%edi
  401ff2:	b8 00 00 00 00       	mov    $0x0,%eax
  401ff7:	e8 c4 f0 ff ff       	callq  4010c0 <printf@plt>
  401ffc:	bf 01 00 00 00       	mov    $0x1,%edi
  402001:	e8 0a f2 ff ff       	callq  401210 <exit@plt>
  402006:	bf 95 37 40 00       	mov    $0x403795,%edi
  40200b:	e8 70 f0 ff ff       	callq  401080 <puts@plt>
  402010:	48 81 c4 08 40 00 00 	add    $0x4008,%rsp
  402017:	5b                   	pop    %rbx
  402018:	5d                   	pop    %rbp
  402019:	c3                   	retq   
  40201a:	48 89 ee             	mov    %rbp,%rsi
  40201d:	bf e0 38 40 00       	mov    $0x4038e0,%edi
  402022:	b8 00 00 00 00       	mov    $0x0,%eax
  402027:	e8 94 f0 ff ff       	callq  4010c0 <printf@plt>
  40202c:	48 8b 35 2d 41 00 00 	mov    0x412d(%rip),%rsi        # 406160 <user_id>
  402033:	bf 9c 37 40 00       	mov    $0x40379c,%edi
  402038:	b8 00 00 00 00       	mov    $0x0,%eax
  40203d:	e8 7e f0 ff ff       	callq  4010c0 <printf@plt>
  402042:	48 8b 35 57 44 00 00 	mov    0x4457(%rip),%rsi        # 4064a0 <course>
  402049:	bf a9 37 40 00       	mov    $0x4037a9,%edi
  40204e:	b8 00 00 00 00       	mov    $0x0,%eax
  402053:	e8 68 f0 ff ff       	callq  4010c0 <printf@plt>
  402058:	48 8b 35 11 41 00 00 	mov    0x4111(%rip),%rsi        # 406170 <lab>
  40205f:	bf b5 37 40 00       	mov    $0x4037b5,%edi
  402064:	b8 00 00 00 00       	mov    $0x0,%eax
  402069:	e8 52 f0 ff ff       	callq  4010c0 <printf@plt>
  40206e:	48 8d b4 24 00 20 00 	lea    0x2000(%rsp),%rsi
  402075:	00 
  402076:	bf be 37 40 00       	mov    $0x4037be,%edi
  40207b:	b8 00 00 00 00       	mov    $0x0,%eax
  402080:	e8 3b f0 ff ff       	callq  4010c0 <printf@plt>
  402085:	eb 89                	jmp    402010 <notify_server+0x129>
  402087:	c3                   	retq   

0000000000402088 <validate>:
  402088:	53                   	push   %rbx
  402089:	89 fb                	mov    %edi,%ebx
  40208b:	83 3d be 44 00 00 00 	cmpl   $0x0,0x44be(%rip)        # 406550 <is_checker>
  402092:	74 60                	je     4020f4 <validate+0x6c>
  402094:	39 3d aa 44 00 00    	cmp    %edi,0x44aa(%rip)        # 406544 <vlevel>
  40209a:	75 29                	jne    4020c5 <validate+0x3d>
  40209c:	8b 35 9e 44 00 00    	mov    0x449e(%rip),%esi        # 406540 <check_level>
  4020a2:	39 fe                	cmp    %edi,%esi
  4020a4:	75 33                	jne    4020d9 <validate+0x51>
  4020a6:	0f be 35 97 40 00 00 	movsbl 0x4097(%rip),%esi        # 406144 <target_prefix>
  4020ad:	b9 60 65 40 00       	mov    $0x406560,%ecx
  4020b2:	89 fa                	mov    %edi,%edx
  4020b4:	bf e8 37 40 00       	mov    $0x4037e8,%edi
  4020b9:	b8 00 00 00 00       	mov    $0x0,%eax
  4020be:	e8 fd ef ff ff       	callq  4010c0 <printf@plt>
  4020c3:	5b                   	pop    %rbx
  4020c4:	c3                   	retq   
  4020c5:	bf ca 37 40 00       	mov    $0x4037ca,%edi
  4020ca:	e8 b1 ef ff ff       	callq  401080 <puts@plt>
  4020cf:	b8 00 00 00 00       	mov    $0x0,%eax
  4020d4:	e8 8d fd ff ff       	callq  401e66 <check_fail>
  4020d9:	89 fa                	mov    %edi,%edx
  4020db:	bf 08 39 40 00       	mov    $0x403908,%edi
  4020e0:	b8 00 00 00 00       	mov    $0x0,%eax
  4020e5:	e8 d6 ef ff ff       	callq  4010c0 <printf@plt>
  4020ea:	b8 00 00 00 00       	mov    $0x0,%eax
  4020ef:	e8 72 fd ff ff       	callq  401e66 <check_fail>
  4020f4:	39 3d 4a 44 00 00    	cmp    %edi,0x444a(%rip)        # 406544 <vlevel>
  4020fa:	74 18                	je     402114 <validate+0x8c>
  4020fc:	bf ca 37 40 00       	mov    $0x4037ca,%edi
  402101:	e8 7a ef ff ff       	callq  401080 <puts@plt>
  402106:	89 de                	mov    %ebx,%esi
  402108:	bf 00 00 00 00       	mov    $0x0,%edi
  40210d:	e8 d5 fd ff ff       	callq  401ee7 <notify_server>
  402112:	eb af                	jmp    4020c3 <validate+0x3b>
  402114:	0f be 15 29 40 00 00 	movsbl 0x4029(%rip),%edx        # 406144 <target_prefix>
  40211b:	89 fe                	mov    %edi,%esi
  40211d:	bf 30 39 40 00       	mov    $0x403930,%edi
  402122:	b8 00 00 00 00       	mov    $0x0,%eax
  402127:	e8 94 ef ff ff       	callq  4010c0 <printf@plt>
  40212c:	89 de                	mov    %ebx,%esi
  40212e:	bf 01 00 00 00       	mov    $0x1,%edi
  402133:	e8 af fd ff ff       	callq  401ee7 <notify_server>
  402138:	eb 89                	jmp    4020c3 <validate+0x3b>

000000000040213a <fail>:
  40213a:	48 83 ec 08          	sub    $0x8,%rsp
  40213e:	83 3d 0b 44 00 00 00 	cmpl   $0x0,0x440b(%rip)        # 406550 <is_checker>
  402145:	75 11                	jne    402158 <fail+0x1e>
  402147:	89 fe                	mov    %edi,%esi
  402149:	bf 00 00 00 00       	mov    $0x0,%edi
  40214e:	e8 94 fd ff ff       	callq  401ee7 <notify_server>
  402153:	48 83 c4 08          	add    $0x8,%rsp
  402157:	c3                   	retq   
  402158:	b8 00 00 00 00       	mov    $0x0,%eax
  40215d:	e8 04 fd ff ff       	callq  401e66 <check_fail>

0000000000402162 <bushandler>:
  402162:	48 83 ec 08          	sub    $0x8,%rsp
  402166:	83 3d e3 43 00 00 00 	cmpl   $0x0,0x43e3(%rip)        # 406550 <is_checker>
  40216d:	74 14                	je     402183 <bushandler+0x21>
  40216f:	bf fd 37 40 00       	mov    $0x4037fd,%edi
  402174:	e8 07 ef ff ff       	callq  401080 <puts@plt>
  402179:	b8 00 00 00 00       	mov    $0x0,%eax
  40217e:	e8 e3 fc ff ff       	callq  401e66 <check_fail>
  402183:	bf 68 39 40 00       	mov    $0x403968,%edi
  402188:	e8 f3 ee ff ff       	callq  401080 <puts@plt>
  40218d:	bf 07 38 40 00       	mov    $0x403807,%edi
  402192:	e8 e9 ee ff ff       	callq  401080 <puts@plt>
  402197:	be 00 00 00 00       	mov    $0x0,%esi
  40219c:	bf 00 00 00 00       	mov    $0x0,%edi
  4021a1:	e8 41 fd ff ff       	callq  401ee7 <notify_server>
  4021a6:	bf 01 00 00 00       	mov    $0x1,%edi
  4021ab:	e8 60 f0 ff ff       	callq  401210 <exit@plt>

00000000004021b0 <seghandler>:
  4021b0:	48 83 ec 08          	sub    $0x8,%rsp
  4021b4:	83 3d 95 43 00 00 00 	cmpl   $0x0,0x4395(%rip)        # 406550 <is_checker>
  4021bb:	74 14                	je     4021d1 <seghandler+0x21>
  4021bd:	bf 1d 38 40 00       	mov    $0x40381d,%edi
  4021c2:	e8 b9 ee ff ff       	callq  401080 <puts@plt>
  4021c7:	b8 00 00 00 00       	mov    $0x0,%eax
  4021cc:	e8 95 fc ff ff       	callq  401e66 <check_fail>
  4021d1:	bf 88 39 40 00       	mov    $0x403988,%edi
  4021d6:	e8 a5 ee ff ff       	callq  401080 <puts@plt>
  4021db:	bf 07 38 40 00       	mov    $0x403807,%edi
  4021e0:	e8 9b ee ff ff       	callq  401080 <puts@plt>
  4021e5:	be 00 00 00 00       	mov    $0x0,%esi
  4021ea:	bf 00 00 00 00       	mov    $0x0,%edi
  4021ef:	e8 f3 fc ff ff       	callq  401ee7 <notify_server>
  4021f4:	bf 01 00 00 00       	mov    $0x1,%edi
  4021f9:	e8 12 f0 ff ff       	callq  401210 <exit@plt>

00000000004021fe <illegalhandler>:
  4021fe:	48 83 ec 08          	sub    $0x8,%rsp
  402202:	83 3d 47 43 00 00 00 	cmpl   $0x0,0x4347(%rip)        # 406550 <is_checker>
  402209:	74 14                	je     40221f <illegalhandler+0x21>
  40220b:	bf 30 38 40 00       	mov    $0x403830,%edi
  402210:	e8 6b ee ff ff       	callq  401080 <puts@plt>
  402215:	b8 00 00 00 00       	mov    $0x0,%eax
  40221a:	e8 47 fc ff ff       	callq  401e66 <check_fail>
  40221f:	bf b0 39 40 00       	mov    $0x4039b0,%edi
  402224:	e8 57 ee ff ff       	callq  401080 <puts@plt>
  402229:	bf 07 38 40 00       	mov    $0x403807,%edi
  40222e:	e8 4d ee ff ff       	callq  401080 <puts@plt>
  402233:	be 00 00 00 00       	mov    $0x0,%esi
  402238:	bf 00 00 00 00       	mov    $0x0,%edi
  40223d:	e8 a5 fc ff ff       	callq  401ee7 <notify_server>
  402242:	bf 01 00 00 00       	mov    $0x1,%edi
  402247:	e8 c4 ef ff ff       	callq  401210 <exit@plt>

000000000040224c <sigalrmhandler>:
  40224c:	48 83 ec 08          	sub    $0x8,%rsp
  402250:	83 3d f9 42 00 00 00 	cmpl   $0x0,0x42f9(%rip)        # 406550 <is_checker>
  402257:	74 14                	je     40226d <sigalrmhandler+0x21>
  402259:	bf 44 38 40 00       	mov    $0x403844,%edi
  40225e:	e8 1d ee ff ff       	callq  401080 <puts@plt>
  402263:	b8 00 00 00 00       	mov    $0x0,%eax
  402268:	e8 f9 fb ff ff       	callq  401e66 <check_fail>
  40226d:	be 05 00 00 00       	mov    $0x5,%esi
  402272:	bf e0 39 40 00       	mov    $0x4039e0,%edi
  402277:	b8 00 00 00 00       	mov    $0x0,%eax
  40227c:	e8 3f ee ff ff       	callq  4010c0 <printf@plt>
  402281:	be 00 00 00 00       	mov    $0x0,%esi
  402286:	bf 00 00 00 00       	mov    $0x0,%edi
  40228b:	e8 57 fc ff ff       	callq  401ee7 <notify_server>
  402290:	bf 01 00 00 00       	mov    $0x1,%edi
  402295:	e8 76 ef ff ff       	callq  401210 <exit@plt>

000000000040229a <launch>:
  40229a:	55                   	push   %rbp
  40229b:	48 89 e5             	mov    %rsp,%rbp
  40229e:	48 89 fa             	mov    %rdi,%rdx
  4022a1:	48 8d 47 17          	lea    0x17(%rdi),%rax
  4022a5:	48 83 e0 f0          	and    $0xfffffffffffffff0,%rax
  4022a9:	48 29 c4             	sub    %rax,%rsp
  4022ac:	48 8d 7c 24 0f       	lea    0xf(%rsp),%rdi
  4022b1:	48 83 e7 f0          	and    $0xfffffffffffffff0,%rdi
  4022b5:	be f4 00 00 00       	mov    $0xf4,%esi
  4022ba:	e8 31 ee ff ff       	callq  4010f0 <memset@plt>
  4022bf:	48 8b 05 fa 41 00 00 	mov    0x41fa(%rip),%rax        # 4064c0 <stdin@@GLIBC_2.2.5>
  4022c6:	48 39 05 6b 42 00 00 	cmp    %rax,0x426b(%rip)        # 406538 <infile>
  4022cd:	74 29                	je     4022f8 <launch+0x5e>
  4022cf:	c7 05 6b 42 00 00 00 	movl   $0x0,0x426b(%rip)        # 406544 <vlevel>
  4022d6:	00 00 00 
  4022d9:	b8 00 00 00 00       	mov    $0x0,%eax
  4022de:	e8 f5 fa ff ff       	callq  401dd8 <test>
  4022e3:	83 3d 66 42 00 00 00 	cmpl   $0x0,0x4266(%rip)        # 406550 <is_checker>
  4022ea:	75 1d                	jne    402309 <launch+0x6f>
  4022ec:	bf 64 38 40 00       	mov    $0x403864,%edi
  4022f1:	e8 8a ed ff ff       	callq  401080 <puts@plt>
  4022f6:	c9                   	leaveq 
  4022f7:	c3                   	retq   
  4022f8:	bf 4c 38 40 00       	mov    $0x40384c,%edi
  4022fd:	b8 00 00 00 00       	mov    $0x0,%eax
  402302:	e8 b9 ed ff ff       	callq  4010c0 <printf@plt>
  402307:	eb c6                	jmp    4022cf <launch+0x35>
  402309:	bf 59 38 40 00       	mov    $0x403859,%edi
  40230e:	e8 6d ed ff ff       	callq  401080 <puts@plt>
  402313:	b8 00 00 00 00       	mov    $0x0,%eax
  402318:	e8 49 fb ff ff       	callq  401e66 <check_fail>

000000000040231d <stable_launch>:
  40231d:	53                   	push   %rbx
  40231e:	48 89 3d 0b 42 00 00 	mov    %rdi,0x420b(%rip)        # 406530 <global_offset>
  402325:	41 b9 00 00 00 00    	mov    $0x0,%r9d
  40232b:	41 b8 00 00 00 00    	mov    $0x0,%r8d
  402331:	b9 32 01 00 00       	mov    $0x132,%ecx
  402336:	ba 07 00 00 00       	mov    $0x7,%edx
  40233b:	be 00 00 10 00       	mov    $0x100000,%esi
  402340:	bf 00 60 58 55       	mov    $0x55586000,%edi
  402345:	e8 66 ed ff ff       	callq  4010b0 <mmap@plt>
  40234a:	48 89 c3             	mov    %rax,%rbx
  40234d:	48 3d 00 60 58 55    	cmp    $0x55586000,%rax
  402353:	75 43                	jne    402398 <stable_launch+0x7b>
  402355:	48 8d 90 f8 ff 0f 00 	lea    0xffff8(%rax),%rdx
  40235c:	48 89 15 c5 41 00 00 	mov    %rdx,0x41c5(%rip)        # 406528 <stack_top>
  402363:	48 89 e0             	mov    %rsp,%rax
  402366:	48 89 d4             	mov    %rdx,%rsp
  402369:	48 89 c2             	mov    %rax,%rdx
  40236c:	48 89 15 ad 41 00 00 	mov    %rdx,0x41ad(%rip)        # 406520 <global_save_stack>
  402373:	48 8b 3d b6 41 00 00 	mov    0x41b6(%rip),%rdi        # 406530 <global_offset>
  40237a:	e8 1b ff ff ff       	callq  40229a <launch>
  40237f:	48 8b 05 9a 41 00 00 	mov    0x419a(%rip),%rax        # 406520 <global_save_stack>
  402386:	48 89 c4             	mov    %rax,%rsp
  402389:	be 00 00 10 00       	mov    $0x100000,%esi
  40238e:	48 89 df             	mov    %rbx,%rdi
  402391:	e8 1a ee ff ff       	callq  4011b0 <munmap@plt>
  402396:	5b                   	pop    %rbx
  402397:	c3                   	retq   
  402398:	be 00 00 10 00       	mov    $0x100000,%esi
  40239d:	48 89 c7             	mov    %rax,%rdi
  4023a0:	e8 0b ee ff ff       	callq  4011b0 <munmap@plt>
  4023a5:	ba 00 60 58 55       	mov    $0x55586000,%edx
  4023aa:	be 18 3a 40 00       	mov    $0x403a18,%esi
  4023af:	48 8b 3d 4a 41 00 00 	mov    0x414a(%rip),%rdi        # 406500 <stderr@@GLIBC_2.2.5>
  4023b6:	b8 00 00 00 00       	mov    $0x0,%eax
  4023bb:	e8 90 ed ff ff       	callq  401150 <fprintf@plt>
  4023c0:	bf 01 00 00 00       	mov    $0x1,%edi
  4023c5:	e8 46 ee ff ff       	callq  401210 <exit@plt>

00000000004023ca <rio_readinitb>:
  4023ca:	89 37                	mov    %esi,(%rdi)
  4023cc:	c7 47 04 00 00 00 00 	movl   $0x0,0x4(%rdi)
  4023d3:	48 8d 47 10          	lea    0x10(%rdi),%rax
  4023d7:	48 89 47 08          	mov    %rax,0x8(%rdi)
  4023db:	c3                   	retq   

00000000004023dc <sigalrm_handler>:
  4023dc:	48 83 ec 08          	sub    $0x8,%rsp
  4023e0:	ba 00 00 00 00       	mov    $0x0,%edx
  4023e5:	be 50 3a 40 00       	mov    $0x403a50,%esi
  4023ea:	48 8b 3d 0f 41 00 00 	mov    0x410f(%rip),%rdi        # 406500 <stderr@@GLIBC_2.2.5>
  4023f1:	b8 00 00 00 00       	mov    $0x0,%eax
  4023f6:	e8 55 ed ff ff       	callq  401150 <fprintf@plt>
  4023fb:	bf 01 00 00 00       	mov    $0x1,%edi
  402400:	e8 0b ee ff ff       	callq  401210 <exit@plt>

0000000000402405 <urlencode>:
  402405:	41 54                	push   %r12
  402407:	55                   	push   %rbp
  402408:	53                   	push   %rbx
  402409:	48 83 ec 10          	sub    $0x10,%rsp
  40240d:	48 89 fb             	mov    %rdi,%rbx
  402410:	48 89 f5             	mov    %rsi,%rbp
  402413:	e8 88 ec ff ff       	callq  4010a0 <strlen@plt>
  402418:	eb 0e                	jmp    402428 <urlencode+0x23>
  40241a:	88 55 00             	mov    %dl,0x0(%rbp)
  40241d:	48 8d 6d 01          	lea    0x1(%rbp),%rbp
  402421:	48 83 c3 01          	add    $0x1,%rbx
  402425:	44 89 e0             	mov    %r12d,%eax
  402428:	44 8d 60 ff          	lea    -0x1(%rax),%r12d
  40242c:	85 c0                	test   %eax,%eax
  40242e:	0f 84 93 00 00 00    	je     4024c7 <urlencode+0xc2>
  402434:	0f b6 13             	movzbl (%rbx),%edx
  402437:	80 fa 2a             	cmp    $0x2a,%dl
  40243a:	0f 94 c0             	sete   %al
  40243d:	80 fa 2d             	cmp    $0x2d,%dl
  402440:	0f 94 c1             	sete   %cl
  402443:	08 c8                	or     %cl,%al
  402445:	75 d3                	jne    40241a <urlencode+0x15>
  402447:	80 fa 2e             	cmp    $0x2e,%dl
  40244a:	74 ce                	je     40241a <urlencode+0x15>
  40244c:	80 fa 5f             	cmp    $0x5f,%dl
  40244f:	74 c9                	je     40241a <urlencode+0x15>
  402451:	8d 42 d0             	lea    -0x30(%rdx),%eax
  402454:	3c 09                	cmp    $0x9,%al
  402456:	76 c2                	jbe    40241a <urlencode+0x15>
  402458:	8d 42 bf             	lea    -0x41(%rdx),%eax
  40245b:	3c 19                	cmp    $0x19,%al
  40245d:	76 bb                	jbe    40241a <urlencode+0x15>
  40245f:	8d 42 9f             	lea    -0x61(%rdx),%eax
  402462:	3c 19                	cmp    $0x19,%al
  402464:	76 b4                	jbe    40241a <urlencode+0x15>
  402466:	80 fa 20             	cmp    $0x20,%dl
  402469:	74 4a                	je     4024b5 <urlencode+0xb0>
  40246b:	8d 42 e0             	lea    -0x20(%rdx),%eax
  40246e:	3c 5f                	cmp    $0x5f,%al
  402470:	0f 96 c0             	setbe  %al
  402473:	80 fa 09             	cmp    $0x9,%dl
  402476:	0f 94 c1             	sete   %cl
  402479:	08 c8                	or     %cl,%al
  40247b:	74 45                	je     4024c2 <urlencode+0xbd>
  40247d:	0f b6 d2             	movzbl %dl,%edx
  402480:	be 15 3b 40 00       	mov    $0x403b15,%esi
  402485:	48 8d 7c 24 08       	lea    0x8(%rsp),%rdi
  40248a:	b8 00 00 00 00       	mov    $0x0,%eax
  40248f:	e8 6c ed ff ff       	callq  401200 <sprintf@plt>
  402494:	0f b6 44 24 08       	movzbl 0x8(%rsp),%eax
  402499:	88 45 00             	mov    %al,0x0(%rbp)
  40249c:	0f b6 44 24 09       	movzbl 0x9(%rsp),%eax
  4024a1:	88 45 01             	mov    %al,0x1(%rbp)
  4024a4:	0f b6 44 24 0a       	movzbl 0xa(%rsp),%eax
  4024a9:	88 45 02             	mov    %al,0x2(%rbp)
  4024ac:	48 8d 6d 03          	lea    0x3(%rbp),%rbp
  4024b0:	e9 6c ff ff ff       	jmpq   402421 <urlencode+0x1c>
  4024b5:	c6 45 00 2b          	movb   $0x2b,0x0(%rbp)
  4024b9:	48 8d 6d 01          	lea    0x1(%rbp),%rbp
  4024bd:	e9 5f ff ff ff       	jmpq   402421 <urlencode+0x1c>
  4024c2:	b8 ff ff ff ff       	mov    $0xffffffff,%eax
  4024c7:	48 83 c4 10          	add    $0x10,%rsp
  4024cb:	5b                   	pop    %rbx
  4024cc:	5d                   	pop    %rbp
  4024cd:	41 5c                	pop    %r12
  4024cf:	c3                   	retq   

00000000004024d0 <rio_writen>:
  4024d0:	41 55                	push   %r13
  4024d2:	41 54                	push   %r12
  4024d4:	55                   	push   %rbp
  4024d5:	53                   	push   %rbx
  4024d6:	48 83 ec 08          	sub    $0x8,%rsp
  4024da:	41 89 fc             	mov    %edi,%r12d
  4024dd:	48 89 f5             	mov    %rsi,%rbp
  4024e0:	49 89 d5             	mov    %rdx,%r13
  4024e3:	48 89 d3             	mov    %rdx,%rbx
  4024e6:	eb 06                	jmp    4024ee <rio_writen+0x1e>
  4024e8:	48 29 c3             	sub    %rax,%rbx
  4024eb:	48 01 c5             	add    %rax,%rbp
  4024ee:	48 85 db             	test   %rbx,%rbx
  4024f1:	74 24                	je     402517 <rio_writen+0x47>
  4024f3:	48 89 da             	mov    %rbx,%rdx
  4024f6:	48 89 ee             	mov    %rbp,%rsi
  4024f9:	44 89 e7             	mov    %r12d,%edi
  4024fc:	e8 8f eb ff ff       	callq  401090 <write@plt>
  402501:	48 85 c0             	test   %rax,%rax
  402504:	7f e2                	jg     4024e8 <rio_writen+0x18>
  402506:	e8 35 eb ff ff       	callq  401040 <__errno_location@plt>
  40250b:	83 38 04             	cmpl   $0x4,(%rax)
  40250e:	75 15                	jne    402525 <rio_writen+0x55>
  402510:	b8 00 00 00 00       	mov    $0x0,%eax
  402515:	eb d1                	jmp    4024e8 <rio_writen+0x18>
  402517:	4c 89 e8             	mov    %r13,%rax
  40251a:	48 83 c4 08          	add    $0x8,%rsp
  40251e:	5b                   	pop    %rbx
  40251f:	5d                   	pop    %rbp
  402520:	41 5c                	pop    %r12
  402522:	41 5d                	pop    %r13
  402524:	c3                   	retq   
  402525:	48 c7 c0 ff ff ff ff 	mov    $0xffffffffffffffff,%rax
  40252c:	eb ec                	jmp    40251a <rio_writen+0x4a>

000000000040252e <rio_read>:
  40252e:	41 55                	push   %r13
  402530:	41 54                	push   %r12
  402532:	55                   	push   %rbp
  402533:	53                   	push   %rbx
  402534:	48 83 ec 08          	sub    $0x8,%rsp
  402538:	48 89 fb             	mov    %rdi,%rbx
  40253b:	49 89 f5             	mov    %rsi,%r13
  40253e:	49 89 d4             	mov    %rdx,%r12
  402541:	eb 0a                	jmp    40254d <rio_read+0x1f>
  402543:	e8 f8 ea ff ff       	callq  401040 <__errno_location@plt>
  402548:	83 38 04             	cmpl   $0x4,(%rax)
  40254b:	75 5a                	jne    4025a7 <rio_read+0x79>
  40254d:	8b 6b 04             	mov    0x4(%rbx),%ebp
  402550:	85 ed                	test   %ebp,%ebp
  402552:	7f 22                	jg     402576 <rio_read+0x48>
  402554:	48 8d 6b 10          	lea    0x10(%rbx),%rbp
  402558:	ba 00 20 00 00       	mov    $0x2000,%edx
  40255d:	48 89 ee             	mov    %rbp,%rsi
  402560:	8b 3b                	mov    (%rbx),%edi
  402562:	e8 b9 eb ff ff       	callq  401120 <read@plt>
  402567:	89 43 04             	mov    %eax,0x4(%rbx)
  40256a:	85 c0                	test   %eax,%eax
  40256c:	78 d5                	js     402543 <rio_read+0x15>
  40256e:	74 40                	je     4025b0 <rio_read+0x82>
  402570:	48 89 6b 08          	mov    %rbp,0x8(%rbx)
  402574:	eb d7                	jmp    40254d <rio_read+0x1f>
  402576:	89 e8                	mov    %ebp,%eax
  402578:	4c 39 e0             	cmp    %r12,%rax
  40257b:	72 03                	jb     402580 <rio_read+0x52>
  40257d:	44 89 e5             	mov    %r12d,%ebp
  402580:	4c 63 e5             	movslq %ebp,%r12
  402583:	48 8b 73 08          	mov    0x8(%rbx),%rsi
  402587:	4c 89 e2             	mov    %r12,%rdx
  40258a:	4c 89 ef             	mov    %r13,%rdi
  40258d:	e8 de eb ff ff       	callq  401170 <memcpy@plt>
  402592:	4c 01 63 08          	add    %r12,0x8(%rbx)
  402596:	29 6b 04             	sub    %ebp,0x4(%rbx)
  402599:	4c 89 e0             	mov    %r12,%rax
  40259c:	48 83 c4 08          	add    $0x8,%rsp
  4025a0:	5b                   	pop    %rbx
  4025a1:	5d                   	pop    %rbp
  4025a2:	41 5c                	pop    %r12
  4025a4:	41 5d                	pop    %r13
  4025a6:	c3                   	retq   
  4025a7:	48 c7 c0 ff ff ff ff 	mov    $0xffffffffffffffff,%rax
  4025ae:	eb ec                	jmp    40259c <rio_read+0x6e>
  4025b0:	b8 00 00 00 00       	mov    $0x0,%eax
  4025b5:	eb e5                	jmp    40259c <rio_read+0x6e>

00000000004025b7 <rio_readlineb>:
  4025b7:	41 55                	push   %r13
  4025b9:	41 54                	push   %r12
  4025bb:	55                   	push   %rbp
  4025bc:	53                   	push   %rbx
  4025bd:	48 83 ec 18          	sub    $0x18,%rsp
  4025c1:	49 89 fd             	mov    %rdi,%r13
  4025c4:	48 89 f5             	mov    %rsi,%rbp
  4025c7:	49 89 d4             	mov    %rdx,%r12
  4025ca:	bb 01 00 00 00       	mov    $0x1,%ebx
  4025cf:	eb 18                	jmp    4025e9 <rio_readlineb+0x32>
  4025d1:	85 c0                	test   %eax,%eax
  4025d3:	75 55                	jne    40262a <rio_readlineb+0x73>
  4025d5:	48 83 fb 01          	cmp    $0x1,%rbx
  4025d9:	75 3d                	jne    402618 <rio_readlineb+0x61>
  4025db:	b8 00 00 00 00       	mov    $0x0,%eax
  4025e0:	eb 3d                	jmp    40261f <rio_readlineb+0x68>
  4025e2:	48 83 c3 01          	add    $0x1,%rbx
  4025e6:	48 89 d5             	mov    %rdx,%rbp
  4025e9:	4c 39 e3             	cmp    %r12,%rbx
  4025ec:	73 2a                	jae    402618 <rio_readlineb+0x61>
  4025ee:	ba 01 00 00 00       	mov    $0x1,%edx
  4025f3:	48 8d 74 24 0f       	lea    0xf(%rsp),%rsi
  4025f8:	4c 89 ef             	mov    %r13,%rdi
  4025fb:	e8 2e ff ff ff       	callq  40252e <rio_read>
  402600:	83 f8 01             	cmp    $0x1,%eax
  402603:	75 cc                	jne    4025d1 <rio_readlineb+0x1a>
  402605:	48 8d 55 01          	lea    0x1(%rbp),%rdx
  402609:	0f b6 44 24 0f       	movzbl 0xf(%rsp),%eax
  40260e:	88 45 00             	mov    %al,0x0(%rbp)
  402611:	3c 0a                	cmp    $0xa,%al
  402613:	75 cd                	jne    4025e2 <rio_readlineb+0x2b>
  402615:	48 89 d5             	mov    %rdx,%rbp
  402618:	c6 45 00 00          	movb   $0x0,0x0(%rbp)
  40261c:	48 89 d8             	mov    %rbx,%rax
  40261f:	48 83 c4 18          	add    $0x18,%rsp
  402623:	5b                   	pop    %rbx
  402624:	5d                   	pop    %rbp
  402625:	41 5c                	pop    %r12
  402627:	41 5d                	pop    %r13
  402629:	c3                   	retq   
  40262a:	48 c7 c0 ff ff ff ff 	mov    $0xffffffffffffffff,%rax
  402631:	eb ec                	jmp    40261f <rio_readlineb+0x68>

0000000000402633 <submitr>:
  402633:	41 57                	push   %r15
  402635:	41 56                	push   %r14
  402637:	41 55                	push   %r13
  402639:	41 54                	push   %r12
  40263b:	55                   	push   %rbp
  40263c:	53                   	push   %rbx
  40263d:	48 81 ec 88 a0 00 00 	sub    $0xa088,%rsp
  402644:	49 89 fd             	mov    %rdi,%r13
  402647:	48 89 54 24 08       	mov    %rdx,0x8(%rsp)
  40264c:	48 89 4c 24 10       	mov    %rcx,0x10(%rsp)
  402651:	4d 89 c7             	mov    %r8,%r15
  402654:	4d 89 ce             	mov    %r9,%r14
  402657:	4c 8b a4 24 c0 a0 00 	mov    0xa0c0(%rsp),%r12
  40265e:	00 
  40265f:	c7 84 24 44 a0 00 00 	movl   $0x0,0xa044(%rsp)
  402666:	00 00 00 00 
  40266a:	89 f1                	mov    %esi,%ecx
  40266c:	ba 1c 3b 40 00       	mov    $0x403b1c,%edx
  402671:	be 06 00 00 00       	mov    $0x6,%esi
  402676:	48 8d bc 24 3e a0 00 	lea    0xa03e(%rsp),%rdi
  40267d:	00 
  40267e:	b8 00 00 00 00       	mov    $0x0,%eax
  402683:	e8 48 ea ff ff       	callq  4010d0 <snprintf@plt>
  402688:	48 c7 84 24 50 a0 00 	movq   $0x0,0xa050(%rsp)
  40268f:	00 00 00 00 00 
  402694:	48 c7 84 24 58 a0 00 	movq   $0x0,0xa058(%rsp)
  40269b:	00 00 00 00 00 
  4026a0:	48 c7 84 24 60 a0 00 	movq   $0x0,0xa060(%rsp)
  4026a7:	00 00 00 00 00 
  4026ac:	48 c7 84 24 68 a0 00 	movq   $0x0,0xa068(%rsp)
  4026b3:	00 00 00 00 00 
  4026b8:	48 c7 84 24 70 a0 00 	movq   $0x0,0xa070(%rsp)
  4026bf:	00 00 00 00 00 
  4026c4:	48 c7 84 24 78 a0 00 	movq   $0x0,0xa078(%rsp)
  4026cb:	00 00 00 00 00 
  4026d0:	c7 84 24 58 a0 00 00 	movl   $0x1,0xa058(%rsp)
  4026d7:	01 00 00 00 
  4026db:	48 8d 8c 24 48 a0 00 	lea    0xa048(%rsp),%rcx
  4026e2:	00 
  4026e3:	48 8d 94 24 50 a0 00 	lea    0xa050(%rsp),%rdx
  4026ea:	00 
  4026eb:	48 8d b4 24 3e a0 00 	lea    0xa03e(%rsp),%rsi
  4026f2:	00 
  4026f3:	4c 89 ef             	mov    %r13,%rdi
  4026f6:	e8 35 eb ff ff       	callq  401230 <getaddrinfo@plt>
  4026fb:	89 84 24 44 a0 00 00 	mov    %eax,0xa044(%rsp)
  402702:	85 c0                	test   %eax,%eax
  402704:	75 0a                	jne    402710 <submitr+0xdd>
  402706:	48 8b 9c 24 48 a0 00 	mov    0xa048(%rsp),%rbx
  40270d:	00 
  40270e:	eb 36                	jmp    402746 <submitr+0x113>
  402710:	89 c7                	mov    %eax,%edi
  402712:	e8 c9 e9 ff ff       	callq  4010e0 <gai_strerror@plt>
  402717:	48 89 c1             	mov    %rax,%rcx
  40271a:	ba 78 3a 40 00       	mov    $0x403a78,%edx
  40271f:	be 00 20 00 00       	mov    $0x2000,%esi
  402724:	4c 89 e7             	mov    %r12,%rdi
  402727:	b8 00 00 00 00       	mov    $0x0,%eax
  40272c:	e8 9f e9 ff ff       	callq  4010d0 <snprintf@plt>
  402731:	b8 ff ff ff ff       	mov    $0xffffffff,%eax
  402736:	e9 35 02 00 00       	jmpq   402970 <submitr+0x33d>
  40273b:	89 ef                	mov    %ebp,%edi
  40273d:	e8 ce e9 ff ff       	callq  401110 <close@plt>
  402742:	48 8b 5b 28          	mov    0x28(%rbx),%rbx
  402746:	48 85 db             	test   %rbx,%rbx
  402749:	74 26                	je     402771 <submitr+0x13e>
  40274b:	8b 53 0c             	mov    0xc(%rbx),%edx
  40274e:	8b 73 08             	mov    0x8(%rbx),%esi
  402751:	8b 7b 04             	mov    0x4(%rbx),%edi
  402754:	e8 07 eb ff ff       	callq  401260 <socket@plt>
  402759:	89 c5                	mov    %eax,%ebp
  40275b:	85 c0                	test   %eax,%eax
  40275d:	78 e3                	js     402742 <submitr+0x10f>
  40275f:	48 8b 73 18          	mov    0x18(%rbx),%rsi
  402763:	8b 53 10             	mov    0x10(%rbx),%edx
  402766:	89 c7                	mov    %eax,%edi
  402768:	e8 b3 ea ff ff       	callq  401220 <connect@plt>
  40276d:	85 c0                	test   %eax,%eax
  40276f:	75 ca                	jne    40273b <submitr+0x108>
  402771:	48 85 db             	test   %rbx,%rbx
  402774:	0f 84 08 02 00 00    	je     402982 <submitr+0x34f>
  40277a:	48 8b bc 24 48 a0 00 	mov    0xa048(%rsp),%rdi
  402781:	00 
  402782:	e8 c9 ea ff ff       	callq  401250 <freeaddrinfo@plt>
  402787:	4c 89 f7             	mov    %r14,%rdi
  40278a:	e8 11 e9 ff ff       	callq  4010a0 <strlen@plt>
  40278f:	48 89 c3             	mov    %rax,%rbx
  402792:	48 8b 7c 24 08       	mov    0x8(%rsp),%rdi
  402797:	e8 04 e9 ff ff       	callq  4010a0 <strlen@plt>
  40279c:	48 89 44 24 18       	mov    %rax,0x18(%rsp)
  4027a1:	48 8b 7c 24 10       	mov    0x10(%rsp),%rdi
  4027a6:	e8 f5 e8 ff ff       	callq  4010a0 <strlen@plt>
  4027ab:	48 03 44 24 18       	add    0x18(%rsp),%rax
  4027b0:	48 89 44 24 18       	mov    %rax,0x18(%rsp)
  4027b5:	4c 89 ff             	mov    %r15,%rdi
  4027b8:	e8 e3 e8 ff ff       	callq  4010a0 <strlen@plt>
  4027bd:	48 03 44 24 18       	add    0x18(%rsp),%rax
  4027c2:	48 8d 14 5b          	lea    (%rbx,%rbx,2),%rdx
  4027c6:	48 8d 84 10 80 00 00 	lea    0x80(%rax,%rdx,1),%rax
  4027cd:	00 
  4027ce:	48 3d 00 20 00 00    	cmp    $0x2000,%rax
  4027d4:	0f 87 0e 02 00 00    	ja     4029e8 <submitr+0x3b5>
  4027da:	48 8d b4 24 30 60 00 	lea    0x6030(%rsp),%rsi
  4027e1:	00 
  4027e2:	b9 00 04 00 00       	mov    $0x400,%ecx
  4027e7:	b8 00 00 00 00       	mov    $0x0,%eax
  4027ec:	48 89 f7             	mov    %rsi,%rdi
  4027ef:	f3 48 ab             	rep stos %rax,%es:(%rdi)
  4027f2:	4c 89 f7             	mov    %r14,%rdi
  4027f5:	e8 0b fc ff ff       	callq  402405 <urlencode>
  4027fa:	85 c0                	test   %eax,%eax
  4027fc:	0f 88 5f 02 00 00    	js     402a61 <submitr+0x42e>
  402802:	41 55                	push   %r13
  402804:	48 8d 84 24 38 60 00 	lea    0x6038(%rsp),%rax
  40280b:	00 
  40280c:	50                   	push   %rax
  40280d:	4d 89 f9             	mov    %r15,%r9
  402810:	4c 8b 44 24 18       	mov    0x18(%rsp),%r8
  402815:	48 8b 4c 24 20       	mov    0x20(%rsp),%rcx
  40281a:	ba a0 3a 40 00       	mov    $0x403aa0,%edx
  40281f:	be 00 20 00 00       	mov    $0x2000,%esi
  402824:	48 8d bc 24 40 80 00 	lea    0x8040(%rsp),%rdi
  40282b:	00 
  40282c:	b8 00 00 00 00       	mov    $0x0,%eax
  402831:	e8 9a e8 ff ff       	callq  4010d0 <snprintf@plt>
  402836:	48 8d bc 24 40 80 00 	lea    0x8040(%rsp),%rdi
  40283d:	00 
  40283e:	e8 5d e8 ff ff       	callq  4010a0 <strlen@plt>
  402843:	48 89 c2             	mov    %rax,%rdx
  402846:	48 8d b4 24 40 80 00 	lea    0x8040(%rsp),%rsi
  40284d:	00 
  40284e:	89 ef                	mov    %ebp,%edi
  402850:	e8 7b fc ff ff       	callq  4024d0 <rio_writen>
  402855:	48 83 c4 10          	add    $0x10,%rsp
  402859:	48 85 c0             	test   %rax,%rax
  40285c:	0f 88 95 02 00 00    	js     402af7 <submitr+0x4c4>
  402862:	89 ee                	mov    %ebp,%esi
  402864:	48 8d 7c 24 20       	lea    0x20(%rsp),%rdi
  402869:	e8 5c fb ff ff       	callq  4023ca <rio_readinitb>
  40286e:	ba 00 20 00 00       	mov    $0x2000,%edx
  402873:	48 8d b4 24 30 80 00 	lea    0x8030(%rsp),%rsi
  40287a:	00 
  40287b:	48 8d 7c 24 20       	lea    0x20(%rsp),%rdi
  402880:	e8 32 fd ff ff       	callq  4025b7 <rio_readlineb>
  402885:	48 85 c0             	test   %rax,%rax
  402888:	0f 8e e1 02 00 00    	jle    402b6f <submitr+0x53c>
  40288e:	4c 8d 84 24 30 20 00 	lea    0x2030(%rsp),%r8
  402895:	00 
  402896:	48 8d 8c 24 44 a0 00 	lea    0xa044(%rsp),%rcx
  40289d:	00 
  40289e:	48 8d 94 24 30 40 00 	lea    0x4030(%rsp),%rdx
  4028a5:	00 
  4028a6:	be 1f 3b 40 00       	mov    $0x403b1f,%esi
  4028ab:	48 8d bc 24 30 80 00 	lea    0x8030(%rsp),%rdi
  4028b2:	00 
  4028b3:	b8 00 00 00 00       	mov    $0x0,%eax
  4028b8:	e8 e3 e8 ff ff       	callq  4011a0 <__isoc99_sscanf@plt>
  4028bd:	be 36 3b 40 00       	mov    $0x403b36,%esi
  4028c2:	48 8d bc 24 30 80 00 	lea    0x8030(%rsp),%rdi
  4028c9:	00 
  4028ca:	e8 61 e8 ff ff       	callq  401130 <strcmp@plt>
  4028cf:	85 c0                	test   %eax,%eax
  4028d1:	0f 84 20 03 00 00    	je     402bf7 <submitr+0x5c4>
  4028d7:	ba 00 20 00 00       	mov    $0x2000,%edx
  4028dc:	48 8d b4 24 30 80 00 	lea    0x8030(%rsp),%rsi
  4028e3:	00 
  4028e4:	48 8d 7c 24 20       	lea    0x20(%rsp),%rdi
  4028e9:	e8 c9 fc ff ff       	callq  4025b7 <rio_readlineb>
  4028ee:	48 85 c0             	test   %rax,%rax
  4028f1:	7f ca                	jg     4028bd <submitr+0x28a>
  4028f3:	48 b8 45 72 72 6f 72 	movabs $0x43203a726f727245,%rax
  4028fa:	3a 20 43 
  4028fd:	48 ba 6c 69 65 6e 74 	movabs $0x6e7520746e65696c,%rdx
  402904:	20 75 6e 
  402907:	49 89 04 24          	mov    %rax,(%r12)
  40290b:	49 89 54 24 08       	mov    %rdx,0x8(%r12)
  402910:	48 b8 61 62 6c 65 20 	movabs $0x206f7420656c6261,%rax
  402917:	74 6f 20 
  40291a:	48 ba 72 65 61 64 20 	movabs $0x6165682064616572,%rdx
  402921:	68 65 61 
  402924:	49 89 44 24 10       	mov    %rax,0x10(%r12)
  402929:	49 89 54 24 18       	mov    %rdx,0x18(%r12)
  40292e:	48 b8 64 65 72 73 20 	movabs $0x6f72662073726564,%rax
  402935:	66 72 6f 
  402938:	48 ba 6d 20 74 68 65 	movabs $0x657220656874206d,%rdx
  40293f:	20 72 65 
  402942:	49 89 44 24 20       	mov    %rax,0x20(%r12)
  402947:	49 89 54 24 28       	mov    %rdx,0x28(%r12)
  40294c:	48 b8 73 75 6c 74 20 	movabs $0x72657320746c7573,%rax
  402953:	73 65 72 
  402956:	49 89 44 24 30       	mov    %rax,0x30(%r12)
  40295b:	41 c7 44 24 38 76 65 	movl   $0x726576,0x38(%r12)
  402962:	72 00 
  402964:	89 ef                	mov    %ebp,%edi
  402966:	e8 a5 e7 ff ff       	callq  401110 <close@plt>
  40296b:	b8 ff ff ff ff       	mov    $0xffffffff,%eax
  402970:	48 81 c4 88 a0 00 00 	add    $0xa088,%rsp
  402977:	5b                   	pop    %rbx
  402978:	5d                   	pop    %rbp
  402979:	41 5c                	pop    %r12
  40297b:	41 5d                	pop    %r13
  40297d:	41 5e                	pop    %r14
  40297f:	41 5f                	pop    %r15
  402981:	c3                   	retq   
  402982:	48 b8 45 72 72 6f 72 	movabs $0x55203a726f727245,%rax
  402989:	3a 20 55 
  40298c:	48 ba 6e 61 62 6c 65 	movabs $0x6f7420656c62616e,%rdx
  402993:	20 74 6f 
  402996:	49 89 04 24          	mov    %rax,(%r12)
  40299a:	49 89 54 24 08       	mov    %rdx,0x8(%r12)
  40299f:	48 b8 20 63 6f 6e 6e 	movabs $0x7463656e6e6f6320,%rax
  4029a6:	65 63 74 
  4029a9:	48 ba 20 74 6f 20 74 	movabs $0x20656874206f7420,%rdx
  4029b0:	68 65 20 
  4029b3:	49 89 44 24 10       	mov    %rax,0x10(%r12)
  4029b8:	49 89 54 24 18       	mov    %rdx,0x18(%r12)
  4029bd:	41 c7 44 24 20 73 65 	movl   $0x76726573,0x20(%r12)
  4029c4:	72 76 
  4029c6:	66 41 c7 44 24 24 65 	movw   $0x7265,0x24(%r12)
  4029cd:	72 
  4029ce:	41 c6 44 24 26 00    	movb   $0x0,0x26(%r12)
  4029d4:	48 8b bc 24 48 a0 00 	mov    0xa048(%rsp),%rdi
  4029db:	00 
  4029dc:	e8 6f e8 ff ff       	callq  401250 <freeaddrinfo@plt>
  4029e1:	b8 ff ff ff ff       	mov    $0xffffffff,%eax
  4029e6:	eb 88                	jmp    402970 <submitr+0x33d>
  4029e8:	48 b8 45 72 72 6f 72 	movabs $0x52203a726f727245,%rax
  4029ef:	3a 20 52 
  4029f2:	48 ba 65 73 75 6c 74 	movabs $0x747320746c757365,%rdx
  4029f9:	20 73 74 
  4029fc:	49 89 04 24          	mov    %rax,(%r12)
  402a00:	49 89 54 24 08       	mov    %rdx,0x8(%r12)
  402a05:	48 b8 72 69 6e 67 20 	movabs $0x6f6f7420676e6972,%rax
  402a0c:	74 6f 6f 
  402a0f:	48 ba 20 6c 61 72 67 	movabs $0x202e656772616c20,%rdx
  402a16:	65 2e 20 
  402a19:	49 89 44 24 10       	mov    %rax,0x10(%r12)
  402a1e:	49 89 54 24 18       	mov    %rdx,0x18(%r12)
  402a23:	48 b8 49 6e 63 72 65 	movabs $0x6573616572636e49,%rax
  402a2a:	61 73 65 
  402a2d:	48 ba 20 53 55 42 4d 	movabs $0x5254494d42555320,%rdx
  402a34:	49 54 52 
  402a37:	49 89 44 24 20       	mov    %rax,0x20(%r12)
  402a3c:	49 89 54 24 28       	mov    %rdx,0x28(%r12)
  402a41:	48 b8 5f 4d 41 58 42 	movabs $0x46554258414d5f,%rax
  402a48:	55 46 00 
  402a4b:	49 89 44 24 30       	mov    %rax,0x30(%r12)
  402a50:	89 ef                	mov    %ebp,%edi
  402a52:	e8 b9 e6 ff ff       	callq  401110 <close@plt>
  402a57:	b8 ff ff ff ff       	mov    $0xffffffff,%eax
  402a5c:	e9 0f ff ff ff       	jmpq   402970 <submitr+0x33d>
  402a61:	48 b8 45 72 72 6f 72 	movabs $0x52203a726f727245,%rax
  402a68:	3a 20 52 
  402a6b:	48 ba 65 73 75 6c 74 	movabs $0x747320746c757365,%rdx
  402a72:	20 73 74 
  402a75:	49 89 04 24          	mov    %rax,(%r12)
  402a79:	49 89 54 24 08       	mov    %rdx,0x8(%r12)
  402a7e:	48 b8 72 69 6e 67 20 	movabs $0x6e6f6320676e6972,%rax
  402a85:	63 6f 6e 
  402a88:	48 ba 74 61 69 6e 73 	movabs $0x6e6120736e696174,%rdx
  402a8f:	20 61 6e 
  402a92:	49 89 44 24 10       	mov    %rax,0x10(%r12)
  402a97:	49 89 54 24 18       	mov    %rdx,0x18(%r12)
  402a9c:	48 b8 20 69 6c 6c 65 	movabs $0x6c6167656c6c6920,%rax
  402aa3:	67 61 6c 
  402aa6:	48 ba 20 6f 72 20 75 	movabs $0x72706e7520726f20,%rdx
  402aad:	6e 70 72 
  402ab0:	49 89 44 24 20       	mov    %rax,0x20(%r12)
  402ab5:	49 89 54 24 28       	mov    %rdx,0x28(%r12)
  402aba:	48 b8 69 6e 74 61 62 	movabs $0x20656c6261746e69,%rax
  402ac1:	6c 65 20 
  402ac4:	48 ba 63 68 61 72 61 	movabs $0x6574636172616863,%rdx
  402acb:	63 74 65 
  402ace:	49 89 44 24 30       	mov    %rax,0x30(%r12)
  402ad3:	49 89 54 24 38       	mov    %rdx,0x38(%r12)
  402ad8:	66 41 c7 44 24 40 72 	movw   $0x2e72,0x40(%r12)
  402adf:	2e 
  402ae0:	41 c6 44 24 42 00    	movb   $0x0,0x42(%r12)
  402ae6:	89 ef                	mov    %ebp,%edi
  402ae8:	e8 23 e6 ff ff       	callq  401110 <close@plt>
  402aed:	b8 ff ff ff ff       	mov    $0xffffffff,%eax
  402af2:	e9 79 fe ff ff       	jmpq   402970 <submitr+0x33d>
  402af7:	48 b8 45 72 72 6f 72 	movabs $0x43203a726f727245,%rax
  402afe:	3a 20 43 
  402b01:	48 ba 6c 69 65 6e 74 	movabs $0x6e7520746e65696c,%rdx
  402b08:	20 75 6e 
  402b0b:	49 89 04 24          	mov    %rax,(%r12)
  402b0f:	49 89 54 24 08       	mov    %rdx,0x8(%r12)
  402b14:	48 b8 61 62 6c 65 20 	movabs $0x206f7420656c6261,%rax
  402b1b:	74 6f 20 
  402b1e:	48 ba 77 72 69 74 65 	movabs $0x6f74206574697277,%rdx
  402b25:	20 74 6f 
  402b28:	49 89 44 24 10       	mov    %rax,0x10(%r12)
  402b2d:	49 89 54 24 18       	mov    %rdx,0x18(%r12)
  402b32:	48 b8 20 74 68 65 20 	movabs $0x7365722065687420,%rax
  402b39:	72 65 73 
  402b3c:	48 ba 75 6c 74 20 73 	movabs $0x7672657320746c75,%rdx
  402b43:	65 72 76 
  402b46:	49 89 44 24 20       	mov    %rax,0x20(%r12)
  402b4b:	49 89 54 24 28       	mov    %rdx,0x28(%r12)
  402b50:	66 41 c7 44 24 30 65 	movw   $0x7265,0x30(%r12)
  402b57:	72 
  402b58:	41 c6 44 24 32 00    	movb   $0x0,0x32(%r12)
  402b5e:	89 ef                	mov    %ebp,%edi
  402b60:	e8 ab e5 ff ff       	callq  401110 <close@plt>
  402b65:	b8 ff ff ff ff       	mov    $0xffffffff,%eax
  402b6a:	e9 01 fe ff ff       	jmpq   402970 <submitr+0x33d>
  402b6f:	48 b8 45 72 72 6f 72 	movabs $0x43203a726f727245,%rax
  402b76:	3a 20 43 
  402b79:	48 ba 6c 69 65 6e 74 	movabs $0x6e7520746e65696c,%rdx
  402b80:	20 75 6e 
  402b83:	49 89 04 24          	mov    %rax,(%r12)
  402b87:	49 89 54 24 08       	mov    %rdx,0x8(%r12)
  402b8c:	48 b8 61 62 6c 65 20 	movabs $0x206f7420656c6261,%rax
  402b93:	74 6f 20 
  402b96:	48 ba 72 65 61 64 20 	movabs $0x7269662064616572,%rdx
  402b9d:	66 69 72 
  402ba0:	49 89 44 24 10       	mov    %rax,0x10(%r12)
  402ba5:	49 89 54 24 18       	mov    %rdx,0x18(%r12)
  402baa:	48 b8 73 74 20 68 65 	movabs $0x6564616568207473,%rax
  402bb1:	61 64 65 
  402bb4:	48 ba 72 20 66 72 6f 	movabs $0x72206d6f72662072,%rdx
  402bbb:	6d 20 72 
  402bbe:	49 89 44 24 20       	mov    %rax,0x20(%r12)
  402bc3:	49 89 54 24 28       	mov    %rdx,0x28(%r12)
  402bc8:	48 b8 65 73 75 6c 74 	movabs $0x657320746c757365,%rax
  402bcf:	20 73 65 
  402bd2:	49 89 44 24 30       	mov    %rax,0x30(%r12)
  402bd7:	41 c7 44 24 38 72 76 	movl   $0x72657672,0x38(%r12)
  402bde:	65 72 
  402be0:	41 c6 44 24 3c 00    	movb   $0x0,0x3c(%r12)
  402be6:	89 ef                	mov    %ebp,%edi
  402be8:	e8 23 e5 ff ff       	callq  401110 <close@plt>
  402bed:	b8 ff ff ff ff       	mov    $0xffffffff,%eax
  402bf2:	e9 79 fd ff ff       	jmpq   402970 <submitr+0x33d>
  402bf7:	ba 00 20 00 00       	mov    $0x2000,%edx
  402bfc:	48 8d b4 24 30 80 00 	lea    0x8030(%rsp),%rsi
  402c03:	00 
  402c04:	48 8d 7c 24 20       	lea    0x20(%rsp),%rdi
  402c09:	e8 a9 f9 ff ff       	callq  4025b7 <rio_readlineb>
  402c0e:	48 85 c0             	test   %rax,%rax
  402c11:	7e 73                	jle    402c86 <submitr+0x653>
  402c13:	8b 94 24 44 a0 00 00 	mov    0xa044(%rsp),%edx
  402c1a:	81 fa c8 00 00 00    	cmp    $0xc8,%edx
  402c20:	0f 85 f0 00 00 00    	jne    402d16 <submitr+0x6e3>
  402c26:	48 8d b4 24 30 80 00 	lea    0x8030(%rsp),%rsi
  402c2d:	00 
  402c2e:	4c 89 e7             	mov    %r12,%rdi
  402c31:	e8 3a e4 ff ff       	callq  401070 <strcpy@plt>
  402c36:	89 ef                	mov    %ebp,%edi
  402c38:	e8 d3 e4 ff ff       	callq  401110 <close@plt>
  402c3d:	be 30 3b 40 00       	mov    $0x403b30,%esi
  402c42:	4c 89 e7             	mov    %r12,%rdi
  402c45:	e8 e6 e4 ff ff       	callq  401130 <strcmp@plt>
  402c4a:	85 c0                	test   %eax,%eax
  402c4c:	0f 84 1e fd ff ff    	je     402970 <submitr+0x33d>
  402c52:	be 34 3b 40 00       	mov    $0x403b34,%esi
  402c57:	4c 89 e7             	mov    %r12,%rdi
  402c5a:	e8 d1 e4 ff ff       	callq  401130 <strcmp@plt>
  402c5f:	85 c0                	test   %eax,%eax
  402c61:	0f 84 09 fd ff ff    	je     402970 <submitr+0x33d>
  402c67:	be 39 3b 40 00       	mov    $0x403b39,%esi
  402c6c:	4c 89 e7             	mov    %r12,%rdi
  402c6f:	e8 bc e4 ff ff       	callq  401130 <strcmp@plt>
  402c74:	85 c0                	test   %eax,%eax
  402c76:	0f 84 f4 fc ff ff    	je     402970 <submitr+0x33d>
  402c7c:	b8 ff ff ff ff       	mov    $0xffffffff,%eax
  402c81:	e9 ea fc ff ff       	jmpq   402970 <submitr+0x33d>
  402c86:	48 b8 45 72 72 6f 72 	movabs $0x43203a726f727245,%rax
  402c8d:	3a 20 43 
  402c90:	48 ba 6c 69 65 6e 74 	movabs $0x6e7520746e65696c,%rdx
  402c97:	20 75 6e 
  402c9a:	49 89 04 24          	mov    %rax,(%r12)
  402c9e:	49 89 54 24 08       	mov    %rdx,0x8(%r12)
  402ca3:	48 b8 61 62 6c 65 20 	movabs $0x206f7420656c6261,%rax
  402caa:	74 6f 20 
  402cad:	48 ba 72 65 61 64 20 	movabs $0x6174732064616572,%rdx
  402cb4:	73 74 61 
  402cb7:	49 89 44 24 10       	mov    %rax,0x10(%r12)
  402cbc:	49 89 54 24 18       	mov    %rdx,0x18(%r12)
  402cc1:	48 b8 74 75 73 20 6d 	movabs $0x7373656d20737574,%rax
  402cc8:	65 73 73 
  402ccb:	48 ba 61 67 65 20 66 	movabs $0x6d6f726620656761,%rdx
  402cd2:	72 6f 6d 
  402cd5:	49 89 44 24 20       	mov    %rax,0x20(%r12)
  402cda:	49 89 54 24 28       	mov    %rdx,0x28(%r12)
  402cdf:	48 b8 20 72 65 73 75 	movabs $0x20746c7573657220,%rax
  402ce6:	6c 74 20 
  402ce9:	49 89 44 24 30       	mov    %rax,0x30(%r12)
  402cee:	41 c7 44 24 38 73 65 	movl   $0x76726573,0x38(%r12)
  402cf5:	72 76 
  402cf7:	66 41 c7 44 24 3c 65 	movw   $0x7265,0x3c(%r12)
  402cfe:	72 
  402cff:	41 c6 44 24 3e 00    	movb   $0x0,0x3e(%r12)
  402d05:	89 ef                	mov    %ebp,%edi
  402d07:	e8 04 e4 ff ff       	callq  401110 <close@plt>
  402d0c:	b8 ff ff ff ff       	mov    $0xffffffff,%eax
  402d11:	e9 5a fc ff ff       	jmpq   402970 <submitr+0x33d>
  402d16:	48 8d 8c 24 30 20 00 	lea    0x2030(%rsp),%rcx
  402d1d:	00 
  402d1e:	be e8 3a 40 00       	mov    $0x403ae8,%esi
  402d23:	4c 89 e7             	mov    %r12,%rdi
  402d26:	b8 00 00 00 00       	mov    $0x0,%eax
  402d2b:	e8 d0 e4 ff ff       	callq  401200 <sprintf@plt>
  402d30:	89 ef                	mov    %ebp,%edi
  402d32:	e8 d9 e3 ff ff       	callq  401110 <close@plt>
  402d37:	b8 ff ff ff ff       	mov    $0xffffffff,%eax
  402d3c:	e9 2f fc ff ff       	jmpq   402970 <submitr+0x33d>

0000000000402d41 <init_timeout>:
  402d41:	85 ff                	test   %edi,%edi
  402d43:	74 24                	je     402d69 <init_timeout+0x28>
  402d45:	53                   	push   %rbx
  402d46:	89 fb                	mov    %edi,%ebx
  402d48:	78 18                	js     402d62 <init_timeout+0x21>
  402d4a:	be dc 23 40 00       	mov    $0x4023dc,%esi
  402d4f:	bf 0e 00 00 00       	mov    $0xe,%edi
  402d54:	e8 e7 e3 ff ff       	callq  401140 <signal@plt>
  402d59:	89 df                	mov    %ebx,%edi
  402d5b:	e8 a0 e3 ff ff       	callq  401100 <alarm@plt>
  402d60:	5b                   	pop    %rbx
  402d61:	c3                   	retq   
  402d62:	bb 00 00 00 00       	mov    $0x0,%ebx
  402d67:	eb e1                	jmp    402d4a <init_timeout+0x9>
  402d69:	c3                   	retq   

0000000000402d6a <init_driver>:
  402d6a:	41 55                	push   %r13
  402d6c:	41 54                	push   %r12
  402d6e:	55                   	push   %rbp
  402d6f:	53                   	push   %rbx
  402d70:	48 83 ec 48          	sub    $0x48,%rsp
  402d74:	49 89 fd             	mov    %rdi,%r13
  402d77:	be 01 00 00 00       	mov    $0x1,%esi
  402d7c:	bf 0d 00 00 00       	mov    $0xd,%edi
  402d81:	e8 ba e3 ff ff       	callq  401140 <signal@plt>
  402d86:	be 01 00 00 00       	mov    $0x1,%esi
  402d8b:	bf 1d 00 00 00       	mov    $0x1d,%edi
  402d90:	e8 ab e3 ff ff       	callq  401140 <signal@plt>
  402d95:	b9 26 47 00 00       	mov    $0x4726,%ecx
  402d9a:	ba 1c 3b 40 00       	mov    $0x403b1c,%edx
  402d9f:	be 06 00 00 00       	mov    $0x6,%esi
  402da4:	48 8d 7c 24 02       	lea    0x2(%rsp),%rdi
  402da9:	b8 00 00 00 00       	mov    $0x0,%eax
  402dae:	e8 1d e3 ff ff       	callq  4010d0 <snprintf@plt>
  402db3:	48 c7 44 24 10 00 00 	movq   $0x0,0x10(%rsp)
  402dba:	00 00 
  402dbc:	48 c7 44 24 18 00 00 	movq   $0x0,0x18(%rsp)
  402dc3:	00 00 
  402dc5:	48 c7 44 24 20 00 00 	movq   $0x0,0x20(%rsp)
  402dcc:	00 00 
  402dce:	48 c7 44 24 28 00 00 	movq   $0x0,0x28(%rsp)
  402dd5:	00 00 
  402dd7:	48 c7 44 24 30 00 00 	movq   $0x0,0x30(%rsp)
  402dde:	00 00 
  402de0:	48 c7 44 24 38 00 00 	movq   $0x0,0x38(%rsp)
  402de7:	00 00 
  402de9:	c7 44 24 18 01 00 00 	movl   $0x1,0x18(%rsp)
  402df0:	00 
  402df1:	48 8d 4c 24 08       	lea    0x8(%rsp),%rcx
  402df6:	48 8d 54 24 10       	lea    0x10(%rsp),%rdx
  402dfb:	48 8d 74 24 02       	lea    0x2(%rsp),%rsi
  402e00:	bf d5 33 40 00       	mov    $0x4033d5,%edi
  402e05:	e8 26 e4 ff ff       	callq  401230 <getaddrinfo@plt>
  402e0a:	41 89 c4             	mov    %eax,%r12d
  402e0d:	85 c0                	test   %eax,%eax
  402e0f:	75 07                	jne    402e18 <init_driver+0xae>
  402e11:	48 8b 5c 24 08       	mov    0x8(%rsp),%rbx
  402e16:	eb 34                	jmp    402e4c <init_driver+0xe2>
  402e18:	89 c7                	mov    %eax,%edi
  402e1a:	e8 c1 e2 ff ff       	callq  4010e0 <gai_strerror@plt>
  402e1f:	48 89 c1             	mov    %rax,%rcx
  402e22:	ba 78 3a 40 00       	mov    $0x403a78,%edx
  402e27:	be 00 20 00 00       	mov    $0x2000,%esi
  402e2c:	4c 89 ef             	mov    %r13,%rdi
  402e2f:	b8 00 00 00 00       	mov    $0x0,%eax
  402e34:	e8 97 e2 ff ff       	callq  4010d0 <snprintf@plt>
  402e39:	41 bc ff ff ff ff    	mov    $0xffffffff,%r12d
  402e3f:	eb 58                	jmp    402e99 <init_driver+0x12f>
  402e41:	89 ef                	mov    %ebp,%edi
  402e43:	e8 c8 e2 ff ff       	callq  401110 <close@plt>
  402e48:	48 8b 5b 28          	mov    0x28(%rbx),%rbx
  402e4c:	48 85 db             	test   %rbx,%rbx
  402e4f:	74 26                	je     402e77 <init_driver+0x10d>
  402e51:	8b 53 0c             	mov    0xc(%rbx),%edx
  402e54:	8b 73 08             	mov    0x8(%rbx),%esi
  402e57:	8b 7b 04             	mov    0x4(%rbx),%edi
  402e5a:	e8 01 e4 ff ff       	callq  401260 <socket@plt>
  402e5f:	89 c5                	mov    %eax,%ebp
  402e61:	85 c0                	test   %eax,%eax
  402e63:	78 e3                	js     402e48 <init_driver+0xde>
  402e65:	48 8b 73 18          	mov    0x18(%rbx),%rsi
  402e69:	8b 53 10             	mov    0x10(%rbx),%edx
  402e6c:	89 c7                	mov    %eax,%edi
  402e6e:	e8 ad e3 ff ff       	callq  401220 <connect@plt>
  402e73:	85 c0                	test   %eax,%eax
  402e75:	75 ca                	jne    402e41 <init_driver+0xd7>
  402e77:	48 85 db             	test   %rbx,%rbx
  402e7a:	74 2b                	je     402ea7 <init_driver+0x13d>
  402e7c:	48 8b 7c 24 08       	mov    0x8(%rsp),%rdi
  402e81:	e8 ca e3 ff ff       	callq  401250 <freeaddrinfo@plt>
  402e86:	89 ef                	mov    %ebp,%edi
  402e88:	e8 83 e2 ff ff       	callq  401110 <close@plt>
  402e8d:	66 41 c7 45 00 4f 4b 	movw   $0x4b4f,0x0(%r13)
  402e94:	41 c6 45 02 00       	movb   $0x0,0x2(%r13)
  402e99:	44 89 e0             	mov    %r12d,%eax
  402e9c:	48 83 c4 48          	add    $0x48,%rsp
  402ea0:	5b                   	pop    %rbx
  402ea1:	5d                   	pop    %rbp
  402ea2:	41 5c                	pop    %r12
  402ea4:	41 5d                	pop    %r13
  402ea6:	c3                   	retq   
  402ea7:	48 b8 45 72 72 6f 72 	movabs $0x55203a726f727245,%rax
  402eae:	3a 20 55 
  402eb1:	48 ba 6e 61 62 6c 65 	movabs $0x6f7420656c62616e,%rdx
  402eb8:	20 74 6f 
  402ebb:	49 89 45 00          	mov    %rax,0x0(%r13)
  402ebf:	49 89 55 08          	mov    %rdx,0x8(%r13)
  402ec3:	48 b8 20 63 6f 6e 6e 	movabs $0x7463656e6e6f6320,%rax
  402eca:	65 63 74 
  402ecd:	48 ba 20 74 6f 20 73 	movabs $0x76726573206f7420,%rdx
  402ed4:	65 72 76 
  402ed7:	49 89 45 10          	mov    %rax,0x10(%r13)
  402edb:	49 89 55 18          	mov    %rdx,0x18(%r13)
  402edf:	66 41 c7 45 20 65 72 	movw   $0x7265,0x20(%r13)
  402ee6:	41 c6 45 22 00       	movb   $0x0,0x22(%r13)
  402eeb:	48 8b 7c 24 08       	mov    0x8(%rsp),%rdi
  402ef0:	e8 5b e3 ff ff       	callq  401250 <freeaddrinfo@plt>
  402ef5:	41 bc ff ff ff ff    	mov    $0xffffffff,%r12d
  402efb:	eb 9c                	jmp    402e99 <init_driver+0x12f>

0000000000402efd <driver_post>:
  402efd:	53                   	push   %rbx
  402efe:	4c 89 cb             	mov    %r9,%rbx
  402f01:	45 85 c0             	test   %r8d,%r8d
  402f04:	75 18                	jne    402f1e <driver_post+0x21>
  402f06:	48 85 ff             	test   %rdi,%rdi
  402f09:	74 05                	je     402f10 <driver_post+0x13>
  402f0b:	80 3f 00             	cmpb   $0x0,(%rdi)
  402f0e:	75 30                	jne    402f40 <driver_post+0x43>
  402f10:	66 c7 03 4f 4b       	movw   $0x4b4f,(%rbx)
  402f15:	c6 43 02 00          	movb   $0x0,0x2(%rbx)
  402f19:	44 89 c0             	mov    %r8d,%eax
  402f1c:	5b                   	pop    %rbx
  402f1d:	c3                   	retq   
  402f1e:	48 89 ce             	mov    %rcx,%rsi
  402f21:	bf 3c 3b 40 00       	mov    $0x403b3c,%edi
  402f26:	b8 00 00 00 00       	mov    $0x0,%eax
  402f2b:	e8 90 e1 ff ff       	callq  4010c0 <printf@plt>
  402f30:	66 c7 03 4f 4b       	movw   $0x4b4f,(%rbx)
  402f35:	c6 43 02 00          	movb   $0x0,0x2(%rbx)
  402f39:	b8 00 00 00 00       	mov    $0x0,%eax
  402f3e:	eb dc                	jmp    402f1c <driver_post+0x1f>
  402f40:	48 83 ec 08          	sub    $0x8,%rsp
  402f44:	41 51                	push   %r9
  402f46:	49 89 c9             	mov    %rcx,%r9
  402f49:	49 89 d0             	mov    %rdx,%r8
  402f4c:	48 89 f9             	mov    %rdi,%rcx
  402f4f:	48 89 f2             	mov    %rsi,%rdx
  402f52:	be 26 47 00 00       	mov    $0x4726,%esi
  402f57:	bf d5 33 40 00       	mov    $0x4033d5,%edi
  402f5c:	e8 d2 f6 ff ff       	callq  402633 <submitr>
  402f61:	48 83 c4 10          	add    $0x10,%rsp
  402f65:	eb b5                	jmp    402f1c <driver_post+0x1f>

0000000000402f67 <check>:
  402f67:	89 f8                	mov    %edi,%eax
  402f69:	c1 e8 1c             	shr    $0x1c,%eax
  402f6c:	74 1d                	je     402f8b <check+0x24>
  402f6e:	b9 00 00 00 00       	mov    $0x0,%ecx
  402f73:	83 f9 1f             	cmp    $0x1f,%ecx
  402f76:	7f 0d                	jg     402f85 <check+0x1e>
  402f78:	89 f8                	mov    %edi,%eax
  402f7a:	d3 e8                	shr    %cl,%eax
  402f7c:	3c 0a                	cmp    $0xa,%al
  402f7e:	74 11                	je     402f91 <check+0x2a>
  402f80:	83 c1 08             	add    $0x8,%ecx
  402f83:	eb ee                	jmp    402f73 <check+0xc>
  402f85:	b8 01 00 00 00       	mov    $0x1,%eax
  402f8a:	c3                   	retq   
  402f8b:	b8 00 00 00 00       	mov    $0x0,%eax
  402f90:	c3                   	retq   
  402f91:	b8 00 00 00 00       	mov    $0x0,%eax
  402f96:	c3                   	retq   

0000000000402f97 <gencookie>:
  402f97:	53                   	push   %rbx
  402f98:	83 c7 01             	add    $0x1,%edi
  402f9b:	e8 b0 e0 ff ff       	callq  401050 <srandom@plt>
  402fa0:	e8 eb e1 ff ff       	callq  401190 <random@plt>
  402fa5:	89 c3                	mov    %eax,%ebx
  402fa7:	89 c7                	mov    %eax,%edi
  402fa9:	e8 b9 ff ff ff       	callq  402f67 <check>
  402fae:	85 c0                	test   %eax,%eax
  402fb0:	74 ee                	je     402fa0 <gencookie+0x9>
  402fb2:	89 d8                	mov    %ebx,%eax
  402fb4:	5b                   	pop    %rbx
  402fb5:	c3                   	retq   

Disassembly of section .fini:

0000000000402fb8 <_fini>:
  402fb8:	f3 0f 1e fa          	endbr64 
  402fbc:	48 83 ec 08          	sub    $0x8,%rsp
  402fc0:	48 83 c4 08          	add    $0x8,%rsp
  402fc4:	c3                   	retq   
