
rtarget:     file format elf64-x86-64


Disassembly of section .init:

0000000000401000 <_init>:
  401000:	f3 0f 1e fa          	endbr64 
  401004:	48 83 ec 08          	sub    $0x8,%rsp
  401008:	48 8b 05 e1 5f 00 00 	mov    0x5fe1(%rip),%rax        # 406ff0 <__gmon_start__>
  40100f:	48 85 c0             	test   %rax,%rax
  401012:	74 02                	je     401016 <_init+0x16>
  401014:	ff d0                	callq  *%rax
  401016:	48 83 c4 08          	add    $0x8,%rsp
  40101a:	c3                   	retq   

Disassembly of section .plt:

0000000000401020 <.plt>:
  401020:	ff 35 e2 5f 00 00    	pushq  0x5fe2(%rip)        # 407008 <_GLOBAL_OFFSET_TABLE_+0x8>
  401026:	ff 25 e4 5f 00 00    	jmpq   *0x5fe4(%rip)        # 407010 <_GLOBAL_OFFSET_TABLE_+0x10>
  40102c:	0f 1f 40 00          	nopl   0x0(%rax)

0000000000401030 <strcasecmp@plt>:
  401030:	ff 25 e2 5f 00 00    	jmpq   *0x5fe2(%rip)        # 407018 <strcasecmp@GLIBC_2.2.5>
  401036:	68 00 00 00 00       	pushq  $0x0
  40103b:	e9 e0 ff ff ff       	jmpq   401020 <.plt>

0000000000401040 <__errno_location@plt>:
  401040:	ff 25 da 5f 00 00    	jmpq   *0x5fda(%rip)        # 407020 <__errno_location@GLIBC_2.2.5>
  401046:	68 01 00 00 00       	pushq  $0x1
  40104b:	e9 d0 ff ff ff       	jmpq   401020 <.plt>

0000000000401050 <srandom@plt>:
  401050:	ff 25 d2 5f 00 00    	jmpq   *0x5fd2(%rip)        # 407028 <srandom@GLIBC_2.2.5>
  401056:	68 02 00 00 00       	pushq  $0x2
  40105b:	e9 c0 ff ff ff       	jmpq   401020 <.plt>

0000000000401060 <strncmp@plt>:
  401060:	ff 25 ca 5f 00 00    	jmpq   *0x5fca(%rip)        # 407030 <strncmp@GLIBC_2.2.5>
  401066:	68 03 00 00 00       	pushq  $0x3
  40106b:	e9 b0 ff ff ff       	jmpq   401020 <.plt>

0000000000401070 <strcpy@plt>:
  401070:	ff 25 c2 5f 00 00    	jmpq   *0x5fc2(%rip)        # 407038 <strcpy@GLIBC_2.2.5>
  401076:	68 04 00 00 00       	pushq  $0x4
  40107b:	e9 a0 ff ff ff       	jmpq   401020 <.plt>

0000000000401080 <puts@plt>:
  401080:	ff 25 ba 5f 00 00    	jmpq   *0x5fba(%rip)        # 407040 <puts@GLIBC_2.2.5>
  401086:	68 05 00 00 00       	pushq  $0x5
  40108b:	e9 90 ff ff ff       	jmpq   401020 <.plt>

0000000000401090 <write@plt>:
  401090:	ff 25 b2 5f 00 00    	jmpq   *0x5fb2(%rip)        # 407048 <write@GLIBC_2.2.5>
  401096:	68 06 00 00 00       	pushq  $0x6
  40109b:	e9 80 ff ff ff       	jmpq   401020 <.plt>

00000000004010a0 <strlen@plt>:
  4010a0:	ff 25 aa 5f 00 00    	jmpq   *0x5faa(%rip)        # 407050 <strlen@GLIBC_2.2.5>
  4010a6:	68 07 00 00 00       	pushq  $0x7
  4010ab:	e9 70 ff ff ff       	jmpq   401020 <.plt>

00000000004010b0 <mmap@plt>:
  4010b0:	ff 25 a2 5f 00 00    	jmpq   *0x5fa2(%rip)        # 407058 <mmap@GLIBC_2.2.5>
  4010b6:	68 08 00 00 00       	pushq  $0x8
  4010bb:	e9 60 ff ff ff       	jmpq   401020 <.plt>

00000000004010c0 <printf@plt>:
  4010c0:	ff 25 9a 5f 00 00    	jmpq   *0x5f9a(%rip)        # 407060 <printf@GLIBC_2.2.5>
  4010c6:	68 09 00 00 00       	pushq  $0x9
  4010cb:	e9 50 ff ff ff       	jmpq   401020 <.plt>

00000000004010d0 <snprintf@plt>:
  4010d0:	ff 25 92 5f 00 00    	jmpq   *0x5f92(%rip)        # 407068 <snprintf@GLIBC_2.2.5>
  4010d6:	68 0a 00 00 00       	pushq  $0xa
  4010db:	e9 40 ff ff ff       	jmpq   401020 <.plt>

00000000004010e0 <gai_strerror@plt>:
  4010e0:	ff 25 8a 5f 00 00    	jmpq   *0x5f8a(%rip)        # 407070 <gai_strerror@GLIBC_2.2.5>
  4010e6:	68 0b 00 00 00       	pushq  $0xb
  4010eb:	e9 30 ff ff ff       	jmpq   401020 <.plt>

00000000004010f0 <memset@plt>:
  4010f0:	ff 25 82 5f 00 00    	jmpq   *0x5f82(%rip)        # 407078 <memset@GLIBC_2.2.5>
  4010f6:	68 0c 00 00 00       	pushq  $0xc
  4010fb:	e9 20 ff ff ff       	jmpq   401020 <.plt>

0000000000401100 <alarm@plt>:
  401100:	ff 25 7a 5f 00 00    	jmpq   *0x5f7a(%rip)        # 407080 <alarm@GLIBC_2.2.5>
  401106:	68 0d 00 00 00       	pushq  $0xd
  40110b:	e9 10 ff ff ff       	jmpq   401020 <.plt>

0000000000401110 <close@plt>:
  401110:	ff 25 72 5f 00 00    	jmpq   *0x5f72(%rip)        # 407088 <close@GLIBC_2.2.5>
  401116:	68 0e 00 00 00       	pushq  $0xe
  40111b:	e9 00 ff ff ff       	jmpq   401020 <.plt>

0000000000401120 <read@plt>:
  401120:	ff 25 6a 5f 00 00    	jmpq   *0x5f6a(%rip)        # 407090 <read@GLIBC_2.2.5>
  401126:	68 0f 00 00 00       	pushq  $0xf
  40112b:	e9 f0 fe ff ff       	jmpq   401020 <.plt>

0000000000401130 <strcmp@plt>:
  401130:	ff 25 62 5f 00 00    	jmpq   *0x5f62(%rip)        # 407098 <strcmp@GLIBC_2.2.5>
  401136:	68 10 00 00 00       	pushq  $0x10
  40113b:	e9 e0 fe ff ff       	jmpq   401020 <.plt>

0000000000401140 <signal@plt>:
  401140:	ff 25 5a 5f 00 00    	jmpq   *0x5f5a(%rip)        # 4070a0 <signal@GLIBC_2.2.5>
  401146:	68 11 00 00 00       	pushq  $0x11
  40114b:	e9 d0 fe ff ff       	jmpq   401020 <.plt>

0000000000401150 <fprintf@plt>:
  401150:	ff 25 52 5f 00 00    	jmpq   *0x5f52(%rip)        # 4070a8 <fprintf@GLIBC_2.2.5>
  401156:	68 12 00 00 00       	pushq  $0x12
  40115b:	e9 c0 fe ff ff       	jmpq   401020 <.plt>

0000000000401160 <strtol@plt>:
  401160:	ff 25 4a 5f 00 00    	jmpq   *0x5f4a(%rip)        # 4070b0 <strtol@GLIBC_2.2.5>
  401166:	68 13 00 00 00       	pushq  $0x13
  40116b:	e9 b0 fe ff ff       	jmpq   401020 <.plt>

0000000000401170 <memcpy@plt>:
  401170:	ff 25 42 5f 00 00    	jmpq   *0x5f42(%rip)        # 4070b8 <memcpy@GLIBC_2.14>
  401176:	68 14 00 00 00       	pushq  $0x14
  40117b:	e9 a0 fe ff ff       	jmpq   401020 <.plt>

0000000000401180 <time@plt>:
  401180:	ff 25 3a 5f 00 00    	jmpq   *0x5f3a(%rip)        # 4070c0 <time@GLIBC_2.2.5>
  401186:	68 15 00 00 00       	pushq  $0x15
  40118b:	e9 90 fe ff ff       	jmpq   401020 <.plt>

0000000000401190 <random@plt>:
  401190:	ff 25 32 5f 00 00    	jmpq   *0x5f32(%rip)        # 4070c8 <random@GLIBC_2.2.5>
  401196:	68 16 00 00 00       	pushq  $0x16
  40119b:	e9 80 fe ff ff       	jmpq   401020 <.plt>

00000000004011a0 <__isoc99_sscanf@plt>:
  4011a0:	ff 25 2a 5f 00 00    	jmpq   *0x5f2a(%rip)        # 4070d0 <__isoc99_sscanf@GLIBC_2.7>
  4011a6:	68 17 00 00 00       	pushq  $0x17
  4011ab:	e9 70 fe ff ff       	jmpq   401020 <.plt>

00000000004011b0 <munmap@plt>:
  4011b0:	ff 25 22 5f 00 00    	jmpq   *0x5f22(%rip)        # 4070d8 <munmap@GLIBC_2.2.5>
  4011b6:	68 18 00 00 00       	pushq  $0x18
  4011bb:	e9 60 fe ff ff       	jmpq   401020 <.plt>

00000000004011c0 <fopen@plt>:
  4011c0:	ff 25 1a 5f 00 00    	jmpq   *0x5f1a(%rip)        # 4070e0 <fopen@GLIBC_2.2.5>
  4011c6:	68 19 00 00 00       	pushq  $0x19
  4011cb:	e9 50 fe ff ff       	jmpq   401020 <.plt>

00000000004011d0 <getopt@plt>:
  4011d0:	ff 25 12 5f 00 00    	jmpq   *0x5f12(%rip)        # 4070e8 <getopt@GLIBC_2.2.5>
  4011d6:	68 1a 00 00 00       	pushq  $0x1a
  4011db:	e9 40 fe ff ff       	jmpq   401020 <.plt>

00000000004011e0 <strtoul@plt>:
  4011e0:	ff 25 0a 5f 00 00    	jmpq   *0x5f0a(%rip)        # 4070f0 <strtoul@GLIBC_2.2.5>
  4011e6:	68 1b 00 00 00       	pushq  $0x1b
  4011eb:	e9 30 fe ff ff       	jmpq   401020 <.plt>

00000000004011f0 <gethostname@plt>:
  4011f0:	ff 25 02 5f 00 00    	jmpq   *0x5f02(%rip)        # 4070f8 <gethostname@GLIBC_2.2.5>
  4011f6:	68 1c 00 00 00       	pushq  $0x1c
  4011fb:	e9 20 fe ff ff       	jmpq   401020 <.plt>

0000000000401200 <sprintf@plt>:
  401200:	ff 25 fa 5e 00 00    	jmpq   *0x5efa(%rip)        # 407100 <sprintf@GLIBC_2.2.5>
  401206:	68 1d 00 00 00       	pushq  $0x1d
  40120b:	e9 10 fe ff ff       	jmpq   401020 <.plt>

0000000000401210 <exit@plt>:
  401210:	ff 25 f2 5e 00 00    	jmpq   *0x5ef2(%rip)        # 407108 <exit@GLIBC_2.2.5>
  401216:	68 1e 00 00 00       	pushq  $0x1e
  40121b:	e9 00 fe ff ff       	jmpq   401020 <.plt>

0000000000401220 <connect@plt>:
  401220:	ff 25 ea 5e 00 00    	jmpq   *0x5eea(%rip)        # 407110 <connect@GLIBC_2.2.5>
  401226:	68 1f 00 00 00       	pushq  $0x1f
  40122b:	e9 f0 fd ff ff       	jmpq   401020 <.plt>

0000000000401230 <getaddrinfo@plt>:
  401230:	ff 25 e2 5e 00 00    	jmpq   *0x5ee2(%rip)        # 407118 <getaddrinfo@GLIBC_2.2.5>
  401236:	68 20 00 00 00       	pushq  $0x20
  40123b:	e9 e0 fd ff ff       	jmpq   401020 <.plt>

0000000000401240 <getc@plt>:
  401240:	ff 25 da 5e 00 00    	jmpq   *0x5eda(%rip)        # 407120 <getc@GLIBC_2.2.5>
  401246:	68 21 00 00 00       	pushq  $0x21
  40124b:	e9 d0 fd ff ff       	jmpq   401020 <.plt>

0000000000401250 <freeaddrinfo@plt>:
  401250:	ff 25 d2 5e 00 00    	jmpq   *0x5ed2(%rip)        # 407128 <freeaddrinfo@GLIBC_2.2.5>
  401256:	68 22 00 00 00       	pushq  $0x22
  40125b:	e9 c0 fd ff ff       	jmpq   401020 <.plt>

0000000000401260 <socket@plt>:
  401260:	ff 25 ca 5e 00 00    	jmpq   *0x5eca(%rip)        # 407130 <socket@GLIBC_2.2.5>
  401266:	68 23 00 00 00       	pushq  $0x23
  40126b:	e9 b0 fd ff ff       	jmpq   401020 <.plt>

Disassembly of section .text:

0000000000401270 <_start>:
  401270:	f3 0f 1e fa          	endbr64 
  401274:	31 ed                	xor    %ebp,%ebp
  401276:	49 89 d1             	mov    %rdx,%r9
  401279:	5e                   	pop    %rsi
  40127a:	48 89 e2             	mov    %rsp,%rdx
  40127d:	48 83 e4 f0          	and    $0xfffffffffffffff0,%rsp
  401281:	50                   	push   %rax
  401282:	54                   	push   %rsp
  401283:	45 31 c0             	xor    %r8d,%r8d
  401286:	31 c9                	xor    %ecx,%ecx
  401288:	48 c7 c7 1f 15 40 00 	mov    $0x40151f,%rdi
  40128f:	ff 15 4b 5d 00 00    	callq  *0x5d4b(%rip)        # 406fe0 <__libc_start_main@GLIBC_2.34>
  401295:	f4                   	hlt    
  401296:	66 2e 0f 1f 84 00 00 	nopw   %cs:0x0(%rax,%rax,1)
  40129d:	00 00 00 

00000000004012a0 <_dl_relocate_static_pie>:
  4012a0:	f3 0f 1e fa          	endbr64 
  4012a4:	c3                   	retq   
  4012a5:	66 2e 0f 1f 84 00 00 	nopw   %cs:0x0(%rax,%rax,1)
  4012ac:	00 00 00 
  4012af:	90                   	nop

00000000004012b0 <deregister_tm_clones>:
  4012b0:	48 8d 3d 01 62 00 00 	lea    0x6201(%rip),%rdi        # 4074b8 <__TMC_END__>
  4012b7:	48 8d 05 fa 61 00 00 	lea    0x61fa(%rip),%rax        # 4074b8 <__TMC_END__>
  4012be:	48 39 f8             	cmp    %rdi,%rax
  4012c1:	74 15                	je     4012d8 <deregister_tm_clones+0x28>
  4012c3:	48 8b 05 1e 5d 00 00 	mov    0x5d1e(%rip),%rax        # 406fe8 <_ITM_deregisterTMCloneTable>
  4012ca:	48 85 c0             	test   %rax,%rax
  4012cd:	74 09                	je     4012d8 <deregister_tm_clones+0x28>
  4012cf:	ff e0                	jmpq   *%rax
  4012d1:	0f 1f 80 00 00 00 00 	nopl   0x0(%rax)
  4012d8:	c3                   	retq   
  4012d9:	0f 1f 80 00 00 00 00 	nopl   0x0(%rax)

00000000004012e0 <register_tm_clones>:
  4012e0:	48 8d 3d d1 61 00 00 	lea    0x61d1(%rip),%rdi        # 4074b8 <__TMC_END__>
  4012e7:	48 8d 35 ca 61 00 00 	lea    0x61ca(%rip),%rsi        # 4074b8 <__TMC_END__>
  4012ee:	48 29 fe             	sub    %rdi,%rsi
  4012f1:	48 89 f0             	mov    %rsi,%rax
  4012f4:	48 c1 ee 3f          	shr    $0x3f,%rsi
  4012f8:	48 c1 f8 03          	sar    $0x3,%rax
  4012fc:	48 01 c6             	add    %rax,%rsi
  4012ff:	48 d1 fe             	sar    %rsi
  401302:	74 14                	je     401318 <register_tm_clones+0x38>
  401304:	48 8b 05 ed 5c 00 00 	mov    0x5ced(%rip),%rax        # 406ff8 <_ITM_registerTMCloneTable>
  40130b:	48 85 c0             	test   %rax,%rax
  40130e:	74 08                	je     401318 <register_tm_clones+0x38>
  401310:	ff e0                	jmpq   *%rax
  401312:	66 0f 1f 44 00 00    	nopw   0x0(%rax,%rax,1)
  401318:	c3                   	retq   
  401319:	0f 1f 80 00 00 00 00 	nopl   0x0(%rax)

0000000000401320 <__do_global_dtors_aux>:
  401320:	f3 0f 1e fa          	endbr64 
  401324:	80 3d dd 61 00 00 00 	cmpb   $0x0,0x61dd(%rip)        # 407508 <completed.0>
  40132b:	75 13                	jne    401340 <__do_global_dtors_aux+0x20>
  40132d:	55                   	push   %rbp
  40132e:	48 89 e5             	mov    %rsp,%rbp
  401331:	e8 7a ff ff ff       	callq  4012b0 <deregister_tm_clones>
  401336:	c6 05 cb 61 00 00 01 	movb   $0x1,0x61cb(%rip)        # 407508 <completed.0>
  40133d:	5d                   	pop    %rbp
  40133e:	c3                   	retq   
  40133f:	90                   	nop
  401340:	c3                   	retq   
  401341:	66 66 2e 0f 1f 84 00 	data16 nopw %cs:0x0(%rax,%rax,1)
  401348:	00 00 00 00 
  40134c:	0f 1f 40 00          	nopl   0x0(%rax)

0000000000401350 <frame_dummy>:
  401350:	f3 0f 1e fa          	endbr64 
  401354:	eb 8a                	jmp    4012e0 <register_tm_clones>

0000000000401356 <usage>:
  401356:	48 83 ec 08          	sub    $0x8,%rsp
  40135a:	48 89 fe             	mov    %rdi,%rsi
  40135d:	83 3d ec 61 00 00 00 	cmpl   $0x0,0x61ec(%rip)        # 407550 <is_checker>
  401364:	74 41                	je     4013a7 <usage+0x51>
  401366:	bf 10 40 40 00       	mov    $0x404010,%edi
  40136b:	b8 00 00 00 00       	mov    $0x0,%eax
  401370:	e8 4b fd ff ff       	callq  4010c0 <printf@plt>
  401375:	bf 48 40 40 00       	mov    $0x404048,%edi
  40137a:	e8 01 fd ff ff       	callq  401080 <puts@plt>
  40137f:	bf c0 41 40 00       	mov    $0x4041c0,%edi
  401384:	e8 f7 fc ff ff       	callq  401080 <puts@plt>
  401389:	bf 70 40 40 00       	mov    $0x404070,%edi
  40138e:	e8 ed fc ff ff       	callq  401080 <puts@plt>
  401393:	bf da 41 40 00       	mov    $0x4041da,%edi
  401398:	e8 e3 fc ff ff       	callq  401080 <puts@plt>
  40139d:	bf 00 00 00 00       	mov    $0x0,%edi
  4013a2:	e8 69 fe ff ff       	callq  401210 <exit@plt>
  4013a7:	bf f6 41 40 00       	mov    $0x4041f6,%edi
  4013ac:	b8 00 00 00 00       	mov    $0x0,%eax
  4013b1:	e8 0a fd ff ff       	callq  4010c0 <printf@plt>
  4013b6:	bf 98 40 40 00       	mov    $0x404098,%edi
  4013bb:	e8 c0 fc ff ff       	callq  401080 <puts@plt>
  4013c0:	bf c0 40 40 00       	mov    $0x4040c0,%edi
  4013c5:	e8 b6 fc ff ff       	callq  401080 <puts@plt>
  4013ca:	bf 14 42 40 00       	mov    $0x404214,%edi
  4013cf:	e8 ac fc ff ff       	callq  401080 <puts@plt>
  4013d4:	eb c7                	jmp    40139d <usage+0x47>

00000000004013d6 <initialize_target>:
  4013d6:	55                   	push   %rbp
  4013d7:	53                   	push   %rbx
  4013d8:	48 81 ec 08 21 00 00 	sub    $0x2108,%rsp
  4013df:	89 f5                	mov    %esi,%ebp
  4013e1:	89 3d 59 61 00 00    	mov    %edi,0x6159(%rip)        # 407540 <check_level>
  4013e7:	8b 3d 7b 5d 00 00    	mov    0x5d7b(%rip),%edi        # 407168 <target_id>
  4013ed:	e8 c7 1c 00 00       	callq  4030b9 <gencookie>
  4013f2:	89 c7                	mov    %eax,%edi
  4013f4:	89 05 52 61 00 00    	mov    %eax,0x6152(%rip)        # 40754c <cookie>
  4013fa:	e8 ba 1c 00 00       	callq  4030b9 <gencookie>
  4013ff:	89 05 43 61 00 00    	mov    %eax,0x6143(%rip)        # 407548 <authkey>
  401405:	8b 05 5d 5d 00 00    	mov    0x5d5d(%rip),%eax        # 407168 <target_id>
  40140b:	8d 78 01             	lea    0x1(%rax),%edi
  40140e:	e8 3d fc ff ff       	callq  401050 <srandom@plt>
  401413:	e8 78 fd ff ff       	callq  401190 <random@plt>
  401418:	89 c7                	mov    %eax,%edi
  40141a:	e8 b8 02 00 00       	callq  4016d7 <scramble>
  40141f:	89 c3                	mov    %eax,%ebx
  401421:	85 ed                	test   %ebp,%ebp
  401423:	75 3d                	jne    401462 <initialize_target+0x8c>
  401425:	b8 00 00 00 00       	mov    $0x0,%eax
  40142a:	01 d8                	add    %ebx,%eax
  40142c:	0f b7 c0             	movzwl %ax,%eax
  40142f:	8d 04 c5 00 01 00 00 	lea    0x100(,%rax,8),%eax
  401436:	89 c0                	mov    %eax,%eax
  401438:	48 89 05 71 60 00 00 	mov    %rax,0x6071(%rip)        # 4074b0 <buf_offset>
  40143f:	c6 05 fe 5c 00 00 72 	movb   $0x72,0x5cfe(%rip)        # 407144 <target_prefix>
  401446:	83 3d 5b 60 00 00 00 	cmpl   $0x0,0x605b(%rip)        # 4074a8 <notify>
  40144d:	74 09                	je     401458 <initialize_target+0x82>
  40144f:	83 3d fa 60 00 00 00 	cmpl   $0x0,0x60fa(%rip)        # 407550 <is_checker>
  401456:	74 22                	je     40147a <initialize_target+0xa4>
  401458:	48 81 c4 08 21 00 00 	add    $0x2108,%rsp
  40145f:	5b                   	pop    %rbx
  401460:	5d                   	pop    %rbp
  401461:	c3                   	retq   
  401462:	bf 00 00 00 00       	mov    $0x0,%edi
  401467:	e8 14 fd ff ff       	callq  401180 <time@plt>
  40146c:	89 c7                	mov    %eax,%edi
  40146e:	e8 dd fb ff ff       	callq  401050 <srandom@plt>
  401473:	e8 18 fd ff ff       	callq  401190 <random@plt>
  401478:	eb b0                	jmp    40142a <initialize_target+0x54>
  40147a:	be 00 01 00 00       	mov    $0x100,%esi
  40147f:	48 89 e7             	mov    %rsp,%rdi
  401482:	e8 69 fd ff ff       	callq  4011f0 <gethostname@plt>
  401487:	89 c5                	mov    %eax,%ebp
  401489:	85 c0                	test   %eax,%eax
  40148b:	75 23                	jne    4014b0 <initialize_target+0xda>
  40148d:	89 c3                	mov    %eax,%ebx
  40148f:	48 63 c3             	movslq %ebx,%rax
  401492:	48 8b 3c c5 80 71 40 	mov    0x407180(,%rax,8),%rdi
  401499:	00 
  40149a:	48 85 ff             	test   %rdi,%rdi
  40149d:	74 2a                	je     4014c9 <initialize_target+0xf3>
  40149f:	48 89 e6             	mov    %rsp,%rsi
  4014a2:	e8 89 fb ff ff       	callq  401030 <strcasecmp@plt>
  4014a7:	85 c0                	test   %eax,%eax
  4014a9:	74 19                	je     4014c4 <initialize_target+0xee>
  4014ab:	83 c3 01             	add    $0x1,%ebx
  4014ae:	eb df                	jmp    40148f <initialize_target+0xb9>
  4014b0:	bf f0 40 40 00       	mov    $0x4040f0,%edi
  4014b5:	e8 c6 fb ff ff       	callq  401080 <puts@plt>
  4014ba:	bf 08 00 00 00       	mov    $0x8,%edi
  4014bf:	e8 4c fd ff ff       	callq  401210 <exit@plt>
  4014c4:	bd 01 00 00 00       	mov    $0x1,%ebp
  4014c9:	85 ed                	test   %ebp,%ebp
  4014cb:	74 36                	je     401503 <initialize_target+0x12d>
  4014cd:	48 8d bc 24 00 01 00 	lea    0x100(%rsp),%rdi
  4014d4:	00 
  4014d5:	e8 b2 19 00 00       	callq  402e8c <init_driver>
  4014da:	85 c0                	test   %eax,%eax
  4014dc:	0f 89 76 ff ff ff    	jns    401458 <initialize_target+0x82>
  4014e2:	48 8d b4 24 00 01 00 	lea    0x100(%rsp),%rsi
  4014e9:	00 
  4014ea:	bf 68 41 40 00       	mov    $0x404168,%edi
  4014ef:	b8 00 00 00 00       	mov    $0x0,%eax
  4014f4:	e8 c7 fb ff ff       	callq  4010c0 <printf@plt>
  4014f9:	bf 08 00 00 00       	mov    $0x8,%edi
  4014fe:	e8 0d fd ff ff       	callq  401210 <exit@plt>
  401503:	48 89 e6             	mov    %rsp,%rsi
  401506:	bf 28 41 40 00       	mov    $0x404128,%edi
  40150b:	b8 00 00 00 00       	mov    $0x0,%eax
  401510:	e8 ab fb ff ff       	callq  4010c0 <printf@plt>
  401515:	bf 08 00 00 00       	mov    $0x8,%edi
  40151a:	e8 f1 fc ff ff       	callq  401210 <exit@plt>

000000000040151f <main>:
  40151f:	41 56                	push   %r14
  401521:	41 55                	push   %r13
  401523:	41 54                	push   %r12
  401525:	55                   	push   %rbp
  401526:	53                   	push   %rbx
  401527:	89 fd                	mov    %edi,%ebp
  401529:	48 89 f3             	mov    %rsi,%rbx
  40152c:	be d2 22 40 00       	mov    $0x4022d2,%esi
  401531:	bf 0b 00 00 00       	mov    $0xb,%edi
  401536:	e8 05 fc ff ff       	callq  401140 <signal@plt>
  40153b:	be 84 22 40 00       	mov    $0x402284,%esi
  401540:	bf 07 00 00 00       	mov    $0x7,%edi
  401545:	e8 f6 fb ff ff       	callq  401140 <signal@plt>
  40154a:	be 20 23 40 00       	mov    $0x402320,%esi
  40154f:	bf 04 00 00 00       	mov    $0x4,%edi
  401554:	e8 e7 fb ff ff       	callq  401140 <signal@plt>
  401559:	83 3d f0 5f 00 00 00 	cmpl   $0x0,0x5ff0(%rip)        # 407550 <is_checker>
  401560:	75 25                	jne    401587 <main+0x68>
  401562:	41 bc 2d 42 40 00    	mov    $0x40422d,%r12d
  401568:	48 8b 05 51 5f 00 00 	mov    0x5f51(%rip),%rax        # 4074c0 <stdin@@GLIBC_2.2.5>
  40156f:	48 89 05 c2 5f 00 00 	mov    %rax,0x5fc2(%rip)        # 407538 <infile>
  401576:	41 bd 00 00 00 00    	mov    $0x0,%r13d
  40157c:	41 be 00 00 00 00    	mov    $0x0,%r14d
  401582:	e9 81 00 00 00       	jmpq   401608 <main+0xe9>
  401587:	be 6e 23 40 00       	mov    $0x40236e,%esi
  40158c:	bf 0e 00 00 00       	mov    $0xe,%edi
  401591:	e8 aa fb ff ff       	callq  401140 <signal@plt>
  401596:	bf 05 00 00 00       	mov    $0x5,%edi
  40159b:	e8 60 fb ff ff       	callq  401100 <alarm@plt>
  4015a0:	41 bc 32 42 40 00    	mov    $0x404232,%r12d
  4015a6:	eb c0                	jmp    401568 <main+0x49>
  4015a8:	48 8b 3b             	mov    (%rbx),%rdi
  4015ab:	e8 a6 fd ff ff       	callq  401356 <usage>
  4015b0:	be 05 48 40 00       	mov    $0x404805,%esi
  4015b5:	48 8b 3d 24 5f 00 00 	mov    0x5f24(%rip),%rdi        # 4074e0 <optarg@@GLIBC_2.2.5>
  4015bc:	e8 ff fb ff ff       	callq  4011c0 <fopen@plt>
  4015c1:	48 89 05 70 5f 00 00 	mov    %rax,0x5f70(%rip)        # 407538 <infile>
  4015c8:	48 85 c0             	test   %rax,%rax
  4015cb:	75 3b                	jne    401608 <main+0xe9>
  4015cd:	48 8b 15 0c 5f 00 00 	mov    0x5f0c(%rip),%rdx        # 4074e0 <optarg@@GLIBC_2.2.5>
  4015d4:	be 3a 42 40 00       	mov    $0x40423a,%esi
  4015d9:	48 8b 3d 20 5f 00 00 	mov    0x5f20(%rip),%rdi        # 407500 <stderr@@GLIBC_2.2.5>
  4015e0:	e8 6b fb ff ff       	callq  401150 <fprintf@plt>
  4015e5:	b8 01 00 00 00       	mov    $0x1,%eax
  4015ea:	e9 c1 00 00 00       	jmpq   4016b0 <main+0x191>
  4015ef:	ba 10 00 00 00       	mov    $0x10,%edx
  4015f4:	be 00 00 00 00       	mov    $0x0,%esi
  4015f9:	48 8b 3d e0 5e 00 00 	mov    0x5ee0(%rip),%rdi        # 4074e0 <optarg@@GLIBC_2.2.5>
  401600:	e8 db fb ff ff       	callq  4011e0 <strtoul@plt>
  401605:	41 89 c6             	mov    %eax,%r14d
  401608:	4c 89 e2             	mov    %r12,%rdx
  40160b:	48 89 de             	mov    %rbx,%rsi
  40160e:	89 ef                	mov    %ebp,%edi
  401610:	e8 bb fb ff ff       	callq  4011d0 <getopt@plt>
  401615:	3c ff                	cmp    $0xff,%al
  401617:	74 52                	je     40166b <main+0x14c>
  401619:	0f be f0             	movsbl %al,%esi
  40161c:	83 e8 61             	sub    $0x61,%eax
  40161f:	3c 10                	cmp    $0x10,%al
  401621:	77 31                	ja     401654 <main+0x135>
  401623:	0f b6 c0             	movzbl %al,%eax
  401626:	ff 24 c5 78 42 40 00 	jmpq   *0x404278(,%rax,8)
  40162d:	ba 0a 00 00 00       	mov    $0xa,%edx
  401632:	be 00 00 00 00       	mov    $0x0,%esi
  401637:	48 8b 3d a2 5e 00 00 	mov    0x5ea2(%rip),%rdi        # 4074e0 <optarg@@GLIBC_2.2.5>
  40163e:	e8 1d fb ff ff       	callq  401160 <strtol@plt>
  401643:	41 89 c5             	mov    %eax,%r13d
  401646:	eb c0                	jmp    401608 <main+0xe9>
  401648:	c7 05 56 5e 00 00 00 	movl   $0x0,0x5e56(%rip)        # 4074a8 <notify>
  40164f:	00 00 00 
  401652:	eb b4                	jmp    401608 <main+0xe9>
  401654:	bf 57 42 40 00       	mov    $0x404257,%edi
  401659:	b8 00 00 00 00       	mov    $0x0,%eax
  40165e:	e8 5d fa ff ff       	callq  4010c0 <printf@plt>
  401663:	48 8b 3b             	mov    (%rbx),%rdi
  401666:	e8 eb fc ff ff       	callq  401356 <usage>
  40166b:	be 01 00 00 00       	mov    $0x1,%esi
  401670:	44 89 ef             	mov    %r13d,%edi
  401673:	e8 5e fd ff ff       	callq  4013d6 <initialize_target>
  401678:	83 3d d1 5e 00 00 00 	cmpl   $0x0,0x5ed1(%rip)        # 407550 <is_checker>
  40167f:	74 09                	je     40168a <main+0x16b>
  401681:	44 39 35 c0 5e 00 00 	cmp    %r14d,0x5ec0(%rip)        # 407548 <authkey>
  401688:	75 2f                	jne    4016b9 <main+0x19a>
  40168a:	8b 35 bc 5e 00 00    	mov    0x5ebc(%rip),%esi        # 40754c <cookie>
  401690:	bf 6a 42 40 00       	mov    $0x40426a,%edi
  401695:	b8 00 00 00 00       	mov    $0x0,%eax
  40169a:	e8 21 fa ff ff       	callq  4010c0 <printf@plt>
  40169f:	48 8b 3d 0a 5e 00 00 	mov    0x5e0a(%rip),%rdi        # 4074b0 <buf_offset>
  4016a6:	e8 11 0d 00 00       	callq  4023bc <launch>
  4016ab:	b8 00 00 00 00       	mov    $0x0,%eax
  4016b0:	5b                   	pop    %rbx
  4016b1:	5d                   	pop    %rbp
  4016b2:	41 5c                	pop    %r12
  4016b4:	41 5d                	pop    %r13
  4016b6:	41 5e                	pop    %r14
  4016b8:	c3                   	retq   
  4016b9:	44 89 f6             	mov    %r14d,%esi
  4016bc:	bf 90 41 40 00       	mov    $0x404190,%edi
  4016c1:	b8 00 00 00 00       	mov    $0x0,%eax
  4016c6:	e8 f5 f9 ff ff       	callq  4010c0 <printf@plt>
  4016cb:	b8 00 00 00 00       	mov    $0x0,%eax
  4016d0:	e8 b3 08 00 00       	callq  401f88 <check_fail>
  4016d5:	eb b3                	jmp    40168a <main+0x16b>

00000000004016d7 <scramble>:
  4016d7:	b8 00 00 00 00       	mov    $0x0,%eax
  4016dc:	eb 11                	jmp    4016ef <scramble+0x18>
  4016de:	69 d0 ab be 00 00    	imul   $0xbeab,%eax,%edx
  4016e4:	01 fa                	add    %edi,%edx
  4016e6:	89 c1                	mov    %eax,%ecx
  4016e8:	89 54 8c c8          	mov    %edx,-0x38(%rsp,%rcx,4)
  4016ec:	83 c0 01             	add    $0x1,%eax
  4016ef:	83 f8 09             	cmp    $0x9,%eax
  4016f2:	76 ea                	jbe    4016de <scramble+0x7>
  4016f4:	8b 44 24 cc          	mov    -0x34(%rsp),%eax
  4016f8:	69 c0 d6 69 00 00    	imul   $0x69d6,%eax,%eax
  4016fe:	89 44 24 cc          	mov    %eax,-0x34(%rsp)
  401702:	8b 44 24 e0          	mov    -0x20(%rsp),%eax
  401706:	69 c0 e2 3f 00 00    	imul   $0x3fe2,%eax,%eax
  40170c:	89 44 24 e0          	mov    %eax,-0x20(%rsp)
  401710:	8b 44 24 d8          	mov    -0x28(%rsp),%eax
  401714:	69 c0 e3 22 00 00    	imul   $0x22e3,%eax,%eax
  40171a:	89 44 24 d8          	mov    %eax,-0x28(%rsp)
  40171e:	8b 44 24 e4          	mov    -0x1c(%rsp),%eax
  401722:	69 c0 c9 76 00 00    	imul   $0x76c9,%eax,%eax
  401728:	89 44 24 e4          	mov    %eax,-0x1c(%rsp)
  40172c:	8b 44 24 e0          	mov    -0x20(%rsp),%eax
  401730:	69 c0 f9 88 00 00    	imul   $0x88f9,%eax,%eax
  401736:	89 44 24 e0          	mov    %eax,-0x20(%rsp)
  40173a:	8b 44 24 d8          	mov    -0x28(%rsp),%eax
  40173e:	69 c0 ff 4f 00 00    	imul   $0x4fff,%eax,%eax
  401744:	89 44 24 d8          	mov    %eax,-0x28(%rsp)
  401748:	8b 44 24 e4          	mov    -0x1c(%rsp),%eax
  40174c:	69 c0 f0 f6 00 00    	imul   $0xf6f0,%eax,%eax
  401752:	89 44 24 e4          	mov    %eax,-0x1c(%rsp)
  401756:	8b 44 24 d0          	mov    -0x30(%rsp),%eax
  40175a:	69 c0 7a 82 00 00    	imul   $0x827a,%eax,%eax
  401760:	89 44 24 d0          	mov    %eax,-0x30(%rsp)
  401764:	8b 44 24 ec          	mov    -0x14(%rsp),%eax
  401768:	69 c0 06 0a 00 00    	imul   $0xa06,%eax,%eax
  40176e:	89 44 24 ec          	mov    %eax,-0x14(%rsp)
  401772:	8b 44 24 ec          	mov    -0x14(%rsp),%eax
  401776:	69 c0 51 ee 00 00    	imul   $0xee51,%eax,%eax
  40177c:	89 44 24 ec          	mov    %eax,-0x14(%rsp)
  401780:	8b 44 24 e0          	mov    -0x20(%rsp),%eax
  401784:	69 c0 fa 1a 00 00    	imul   $0x1afa,%eax,%eax
  40178a:	89 44 24 e0          	mov    %eax,-0x20(%rsp)
  40178e:	8b 44 24 cc          	mov    -0x34(%rsp),%eax
  401792:	69 c0 73 d1 00 00    	imul   $0xd173,%eax,%eax
  401798:	89 44 24 cc          	mov    %eax,-0x34(%rsp)
  40179c:	8b 44 24 dc          	mov    -0x24(%rsp),%eax
  4017a0:	69 c0 1b c5 00 00    	imul   $0xc51b,%eax,%eax
  4017a6:	89 44 24 dc          	mov    %eax,-0x24(%rsp)
  4017aa:	8b 44 24 e0          	mov    -0x20(%rsp),%eax
  4017ae:	69 c0 26 a9 00 00    	imul   $0xa926,%eax,%eax
  4017b4:	89 44 24 e0          	mov    %eax,-0x20(%rsp)
  4017b8:	8b 44 24 d0          	mov    -0x30(%rsp),%eax
  4017bc:	69 c0 77 7e 00 00    	imul   $0x7e77,%eax,%eax
  4017c2:	89 44 24 d0          	mov    %eax,-0x30(%rsp)
  4017c6:	8b 44 24 cc          	mov    -0x34(%rsp),%eax
  4017ca:	69 c0 1f ed 00 00    	imul   $0xed1f,%eax,%eax
  4017d0:	89 44 24 cc          	mov    %eax,-0x34(%rsp)
  4017d4:	8b 44 24 cc          	mov    -0x34(%rsp),%eax
  4017d8:	69 c0 38 d7 00 00    	imul   $0xd738,%eax,%eax
  4017de:	89 44 24 cc          	mov    %eax,-0x34(%rsp)
  4017e2:	8b 44 24 d4          	mov    -0x2c(%rsp),%eax
  4017e6:	69 c0 35 08 00 00    	imul   $0x835,%eax,%eax
  4017ec:	89 44 24 d4          	mov    %eax,-0x2c(%rsp)
  4017f0:	8b 44 24 d8          	mov    -0x28(%rsp),%eax
  4017f4:	69 c0 06 8a 00 00    	imul   $0x8a06,%eax,%eax
  4017fa:	89 44 24 d8          	mov    %eax,-0x28(%rsp)
  4017fe:	8b 44 24 e4          	mov    -0x1c(%rsp),%eax
  401802:	69 c0 34 bd 00 00    	imul   $0xbd34,%eax,%eax
  401808:	89 44 24 e4          	mov    %eax,-0x1c(%rsp)
  40180c:	8b 44 24 dc          	mov    -0x24(%rsp),%eax
  401810:	69 c0 3f 65 00 00    	imul   $0x653f,%eax,%eax
  401816:	89 44 24 dc          	mov    %eax,-0x24(%rsp)
  40181a:	8b 44 24 e4          	mov    -0x1c(%rsp),%eax
  40181e:	69 c0 2d 1c 00 00    	imul   $0x1c2d,%eax,%eax
  401824:	89 44 24 e4          	mov    %eax,-0x1c(%rsp)
  401828:	8b 44 24 e0          	mov    -0x20(%rsp),%eax
  40182c:	69 c0 c1 28 00 00    	imul   $0x28c1,%eax,%eax
  401832:	89 44 24 e0          	mov    %eax,-0x20(%rsp)
  401836:	8b 44 24 ec          	mov    -0x14(%rsp),%eax
  40183a:	69 c0 2b 75 00 00    	imul   $0x752b,%eax,%eax
  401840:	89 44 24 ec          	mov    %eax,-0x14(%rsp)
  401844:	8b 44 24 e0          	mov    -0x20(%rsp),%eax
  401848:	69 c0 7d c6 00 00    	imul   $0xc67d,%eax,%eax
  40184e:	89 44 24 e0          	mov    %eax,-0x20(%rsp)
  401852:	8b 44 24 ec          	mov    -0x14(%rsp),%eax
  401856:	69 c0 dc fd 00 00    	imul   $0xfddc,%eax,%eax
  40185c:	89 44 24 ec          	mov    %eax,-0x14(%rsp)
  401860:	8b 44 24 d4          	mov    -0x2c(%rsp),%eax
  401864:	69 c0 f2 78 00 00    	imul   $0x78f2,%eax,%eax
  40186a:	89 44 24 d4          	mov    %eax,-0x2c(%rsp)
  40186e:	8b 44 24 d4          	mov    -0x2c(%rsp),%eax
  401872:	69 c0 e8 4f 00 00    	imul   $0x4fe8,%eax,%eax
  401878:	89 44 24 d4          	mov    %eax,-0x2c(%rsp)
  40187c:	8b 44 24 e8          	mov    -0x18(%rsp),%eax
  401880:	69 c0 a7 0e 00 00    	imul   $0xea7,%eax,%eax
  401886:	89 44 24 e8          	mov    %eax,-0x18(%rsp)
  40188a:	8b 44 24 d8          	mov    -0x28(%rsp),%eax
  40188e:	69 c0 81 6c 00 00    	imul   $0x6c81,%eax,%eax
  401894:	89 44 24 d8          	mov    %eax,-0x28(%rsp)
  401898:	8b 44 24 d0          	mov    -0x30(%rsp),%eax
  40189c:	69 c0 cd 68 00 00    	imul   $0x68cd,%eax,%eax
  4018a2:	89 44 24 d0          	mov    %eax,-0x30(%rsp)
  4018a6:	8b 44 24 ec          	mov    -0x14(%rsp),%eax
  4018aa:	69 c0 6b 75 00 00    	imul   $0x756b,%eax,%eax
  4018b0:	89 44 24 ec          	mov    %eax,-0x14(%rsp)
  4018b4:	8b 44 24 d8          	mov    -0x28(%rsp),%eax
  4018b8:	69 c0 a2 86 00 00    	imul   $0x86a2,%eax,%eax
  4018be:	89 44 24 d8          	mov    %eax,-0x28(%rsp)
  4018c2:	8b 44 24 d8          	mov    -0x28(%rsp),%eax
  4018c6:	69 c0 20 3a 00 00    	imul   $0x3a20,%eax,%eax
  4018cc:	89 44 24 d8          	mov    %eax,-0x28(%rsp)
  4018d0:	8b 44 24 e4          	mov    -0x1c(%rsp),%eax
  4018d4:	69 c0 9f fc 00 00    	imul   $0xfc9f,%eax,%eax
  4018da:	89 44 24 e4          	mov    %eax,-0x1c(%rsp)
  4018de:	8b 44 24 d0          	mov    -0x30(%rsp),%eax
  4018e2:	69 c0 a7 23 00 00    	imul   $0x23a7,%eax,%eax
  4018e8:	89 44 24 d0          	mov    %eax,-0x30(%rsp)
  4018ec:	8b 44 24 e0          	mov    -0x20(%rsp),%eax
  4018f0:	69 c0 88 04 00 00    	imul   $0x488,%eax,%eax
  4018f6:	89 44 24 e0          	mov    %eax,-0x20(%rsp)
  4018fa:	8b 44 24 dc          	mov    -0x24(%rsp),%eax
  4018fe:	69 c0 0d be 00 00    	imul   $0xbe0d,%eax,%eax
  401904:	89 44 24 dc          	mov    %eax,-0x24(%rsp)
  401908:	8b 44 24 d0          	mov    -0x30(%rsp),%eax
  40190c:	69 c0 7c de 00 00    	imul   $0xde7c,%eax,%eax
  401912:	89 44 24 d0          	mov    %eax,-0x30(%rsp)
  401916:	8b 44 24 ec          	mov    -0x14(%rsp),%eax
  40191a:	69 c0 10 60 00 00    	imul   $0x6010,%eax,%eax
  401920:	89 44 24 ec          	mov    %eax,-0x14(%rsp)
  401924:	8b 44 24 dc          	mov    -0x24(%rsp),%eax
  401928:	69 c0 b4 96 00 00    	imul   $0x96b4,%eax,%eax
  40192e:	89 44 24 dc          	mov    %eax,-0x24(%rsp)
  401932:	8b 44 24 d8          	mov    -0x28(%rsp),%eax
  401936:	69 c0 71 86 00 00    	imul   $0x8671,%eax,%eax
  40193c:	89 44 24 d8          	mov    %eax,-0x28(%rsp)
  401940:	8b 44 24 d4          	mov    -0x2c(%rsp),%eax
  401944:	69 c0 3c 2d 00 00    	imul   $0x2d3c,%eax,%eax
  40194a:	89 44 24 d4          	mov    %eax,-0x2c(%rsp)
  40194e:	8b 44 24 ec          	mov    -0x14(%rsp),%eax
  401952:	69 c0 b3 4d 00 00    	imul   $0x4db3,%eax,%eax
  401958:	89 44 24 ec          	mov    %eax,-0x14(%rsp)
  40195c:	8b 44 24 cc          	mov    -0x34(%rsp),%eax
  401960:	69 c0 68 cf 00 00    	imul   $0xcf68,%eax,%eax
  401966:	89 44 24 cc          	mov    %eax,-0x34(%rsp)
  40196a:	8b 44 24 e4          	mov    -0x1c(%rsp),%eax
  40196e:	69 c0 01 c9 00 00    	imul   $0xc901,%eax,%eax
  401974:	89 44 24 e4          	mov    %eax,-0x1c(%rsp)
  401978:	8b 44 24 c8          	mov    -0x38(%rsp),%eax
  40197c:	69 c0 d5 13 00 00    	imul   $0x13d5,%eax,%eax
  401982:	89 44 24 c8          	mov    %eax,-0x38(%rsp)
  401986:	8b 44 24 d4          	mov    -0x2c(%rsp),%eax
  40198a:	69 c0 3a 78 00 00    	imul   $0x783a,%eax,%eax
  401990:	89 44 24 d4          	mov    %eax,-0x2c(%rsp)
  401994:	8b 44 24 d0          	mov    -0x30(%rsp),%eax
  401998:	69 c0 0d bc 00 00    	imul   $0xbc0d,%eax,%eax
  40199e:	89 44 24 d0          	mov    %eax,-0x30(%rsp)
  4019a2:	8b 44 24 e8          	mov    -0x18(%rsp),%eax
  4019a6:	69 c0 1f ab 00 00    	imul   $0xab1f,%eax,%eax
  4019ac:	89 44 24 e8          	mov    %eax,-0x18(%rsp)
  4019b0:	8b 44 24 c8          	mov    -0x38(%rsp),%eax
  4019b4:	69 c0 af a9 00 00    	imul   $0xa9af,%eax,%eax
  4019ba:	89 44 24 c8          	mov    %eax,-0x38(%rsp)
  4019be:	8b 44 24 d8          	mov    -0x28(%rsp),%eax
  4019c2:	69 c0 8a 1a 00 00    	imul   $0x1a8a,%eax,%eax
  4019c8:	89 44 24 d8          	mov    %eax,-0x28(%rsp)
  4019cc:	8b 44 24 d4          	mov    -0x2c(%rsp),%eax
  4019d0:	69 c0 9b 0e 00 00    	imul   $0xe9b,%eax,%eax
  4019d6:	89 44 24 d4          	mov    %eax,-0x2c(%rsp)
  4019da:	8b 44 24 cc          	mov    -0x34(%rsp),%eax
  4019de:	69 c0 81 db 00 00    	imul   $0xdb81,%eax,%eax
  4019e4:	89 44 24 cc          	mov    %eax,-0x34(%rsp)
  4019e8:	8b 44 24 e0          	mov    -0x20(%rsp),%eax
  4019ec:	69 c0 cf 0b 00 00    	imul   $0xbcf,%eax,%eax
  4019f2:	89 44 24 e0          	mov    %eax,-0x20(%rsp)
  4019f6:	8b 44 24 e4          	mov    -0x1c(%rsp),%eax
  4019fa:	69 c0 11 92 00 00    	imul   $0x9211,%eax,%eax
  401a00:	89 44 24 e4          	mov    %eax,-0x1c(%rsp)
  401a04:	8b 44 24 d0          	mov    -0x30(%rsp),%eax
  401a08:	69 c0 7f 99 00 00    	imul   $0x997f,%eax,%eax
  401a0e:	89 44 24 d0          	mov    %eax,-0x30(%rsp)
  401a12:	8b 44 24 d4          	mov    -0x2c(%rsp),%eax
  401a16:	69 c0 29 b2 00 00    	imul   $0xb229,%eax,%eax
  401a1c:	89 44 24 d4          	mov    %eax,-0x2c(%rsp)
  401a20:	8b 44 24 d8          	mov    -0x28(%rsp),%eax
  401a24:	69 c0 db ee 00 00    	imul   $0xeedb,%eax,%eax
  401a2a:	89 44 24 d8          	mov    %eax,-0x28(%rsp)
  401a2e:	8b 44 24 ec          	mov    -0x14(%rsp),%eax
  401a32:	69 c0 9f 02 00 00    	imul   $0x29f,%eax,%eax
  401a38:	89 44 24 ec          	mov    %eax,-0x14(%rsp)
  401a3c:	8b 44 24 e8          	mov    -0x18(%rsp),%eax
  401a40:	69 c0 11 ba 00 00    	imul   $0xba11,%eax,%eax
  401a46:	89 44 24 e8          	mov    %eax,-0x18(%rsp)
  401a4a:	8b 44 24 d4          	mov    -0x2c(%rsp),%eax
  401a4e:	69 c0 78 f6 00 00    	imul   $0xf678,%eax,%eax
  401a54:	89 44 24 d4          	mov    %eax,-0x2c(%rsp)
  401a58:	8b 44 24 e0          	mov    -0x20(%rsp),%eax
  401a5c:	69 c0 0d 0a 00 00    	imul   $0xa0d,%eax,%eax
  401a62:	89 44 24 e0          	mov    %eax,-0x20(%rsp)
  401a66:	8b 44 24 c8          	mov    -0x38(%rsp),%eax
  401a6a:	69 c0 5e 68 00 00    	imul   $0x685e,%eax,%eax
  401a70:	89 44 24 c8          	mov    %eax,-0x38(%rsp)
  401a74:	8b 44 24 e0          	mov    -0x20(%rsp),%eax
  401a78:	69 c0 0d 21 00 00    	imul   $0x210d,%eax,%eax
  401a7e:	89 44 24 e0          	mov    %eax,-0x20(%rsp)
  401a82:	8b 44 24 d0          	mov    -0x30(%rsp),%eax
  401a86:	69 c0 c6 7e 00 00    	imul   $0x7ec6,%eax,%eax
  401a8c:	89 44 24 d0          	mov    %eax,-0x30(%rsp)
  401a90:	8b 44 24 c8          	mov    -0x38(%rsp),%eax
  401a94:	69 c0 44 e2 00 00    	imul   $0xe244,%eax,%eax
  401a9a:	89 44 24 c8          	mov    %eax,-0x38(%rsp)
  401a9e:	8b 44 24 e4          	mov    -0x1c(%rsp),%eax
  401aa2:	69 c0 f4 78 00 00    	imul   $0x78f4,%eax,%eax
  401aa8:	89 44 24 e4          	mov    %eax,-0x1c(%rsp)
  401aac:	8b 44 24 e8          	mov    -0x18(%rsp),%eax
  401ab0:	69 c0 e7 71 00 00    	imul   $0x71e7,%eax,%eax
  401ab6:	89 44 24 e8          	mov    %eax,-0x18(%rsp)
  401aba:	8b 44 24 d8          	mov    -0x28(%rsp),%eax
  401abe:	69 c0 f7 dd 00 00    	imul   $0xddf7,%eax,%eax
  401ac4:	89 44 24 d8          	mov    %eax,-0x28(%rsp)
  401ac8:	8b 44 24 d8          	mov    -0x28(%rsp),%eax
  401acc:	69 c0 08 90 00 00    	imul   $0x9008,%eax,%eax
  401ad2:	89 44 24 d8          	mov    %eax,-0x28(%rsp)
  401ad6:	8b 44 24 cc          	mov    -0x34(%rsp),%eax
  401ada:	69 c0 39 20 00 00    	imul   $0x2039,%eax,%eax
  401ae0:	89 44 24 cc          	mov    %eax,-0x34(%rsp)
  401ae4:	8b 44 24 e0          	mov    -0x20(%rsp),%eax
  401ae8:	69 c0 8a 88 00 00    	imul   $0x888a,%eax,%eax
  401aee:	89 44 24 e0          	mov    %eax,-0x20(%rsp)
  401af2:	8b 44 24 d4          	mov    -0x2c(%rsp),%eax
  401af6:	69 c0 42 f0 00 00    	imul   $0xf042,%eax,%eax
  401afc:	89 44 24 d4          	mov    %eax,-0x2c(%rsp)
  401b00:	8b 44 24 e4          	mov    -0x1c(%rsp),%eax
  401b04:	69 c0 3e d2 00 00    	imul   $0xd23e,%eax,%eax
  401b0a:	89 44 24 e4          	mov    %eax,-0x1c(%rsp)
  401b0e:	8b 44 24 c8          	mov    -0x38(%rsp),%eax
  401b12:	69 c0 a9 35 00 00    	imul   $0x35a9,%eax,%eax
  401b18:	89 44 24 c8          	mov    %eax,-0x38(%rsp)
  401b1c:	8b 44 24 dc          	mov    -0x24(%rsp),%eax
  401b20:	69 c0 82 be 00 00    	imul   $0xbe82,%eax,%eax
  401b26:	89 44 24 dc          	mov    %eax,-0x24(%rsp)
  401b2a:	8b 44 24 cc          	mov    -0x34(%rsp),%eax
  401b2e:	69 c0 37 5a 00 00    	imul   $0x5a37,%eax,%eax
  401b34:	89 44 24 cc          	mov    %eax,-0x34(%rsp)
  401b38:	8b 44 24 d4          	mov    -0x2c(%rsp),%eax
  401b3c:	69 c0 d4 9a 00 00    	imul   $0x9ad4,%eax,%eax
  401b42:	89 44 24 d4          	mov    %eax,-0x2c(%rsp)
  401b46:	8b 44 24 d4          	mov    -0x2c(%rsp),%eax
  401b4a:	69 c0 a9 8e 00 00    	imul   $0x8ea9,%eax,%eax
  401b50:	89 44 24 d4          	mov    %eax,-0x2c(%rsp)
  401b54:	8b 44 24 cc          	mov    -0x34(%rsp),%eax
  401b58:	69 c0 13 d6 00 00    	imul   $0xd613,%eax,%eax
  401b5e:	89 44 24 cc          	mov    %eax,-0x34(%rsp)
  401b62:	8b 44 24 e8          	mov    -0x18(%rsp),%eax
  401b66:	69 c0 9d 86 00 00    	imul   $0x869d,%eax,%eax
  401b6c:	89 44 24 e8          	mov    %eax,-0x18(%rsp)
  401b70:	8b 44 24 d8          	mov    -0x28(%rsp),%eax
  401b74:	69 c0 bf a6 00 00    	imul   $0xa6bf,%eax,%eax
  401b7a:	89 44 24 d8          	mov    %eax,-0x28(%rsp)
  401b7e:	8b 44 24 e8          	mov    -0x18(%rsp),%eax
  401b82:	69 c0 37 a9 00 00    	imul   $0xa937,%eax,%eax
  401b88:	89 44 24 e8          	mov    %eax,-0x18(%rsp)
  401b8c:	8b 44 24 e8          	mov    -0x18(%rsp),%eax
  401b90:	69 c0 08 54 00 00    	imul   $0x5408,%eax,%eax
  401b96:	89 44 24 e8          	mov    %eax,-0x18(%rsp)
  401b9a:	8b 44 24 d0          	mov    -0x30(%rsp),%eax
  401b9e:	69 c0 5c 96 00 00    	imul   $0x965c,%eax,%eax
  401ba4:	89 44 24 d0          	mov    %eax,-0x30(%rsp)
  401ba8:	8b 44 24 dc          	mov    -0x24(%rsp),%eax
  401bac:	69 c0 36 f7 00 00    	imul   $0xf736,%eax,%eax
  401bb2:	89 44 24 dc          	mov    %eax,-0x24(%rsp)
  401bb6:	8b 44 24 c8          	mov    -0x38(%rsp),%eax
  401bba:	69 c0 97 0d 00 00    	imul   $0xd97,%eax,%eax
  401bc0:	89 44 24 c8          	mov    %eax,-0x38(%rsp)
  401bc4:	8b 44 24 e4          	mov    -0x1c(%rsp),%eax
  401bc8:	69 c0 f7 88 00 00    	imul   $0x88f7,%eax,%eax
  401bce:	89 44 24 e4          	mov    %eax,-0x1c(%rsp)
  401bd2:	8b 44 24 dc          	mov    -0x24(%rsp),%eax
  401bd6:	69 c0 26 f7 00 00    	imul   $0xf726,%eax,%eax
  401bdc:	89 44 24 dc          	mov    %eax,-0x24(%rsp)
  401be0:	8b 44 24 d4          	mov    -0x2c(%rsp),%eax
  401be4:	69 c0 bb f0 00 00    	imul   $0xf0bb,%eax,%eax
  401bea:	89 44 24 d4          	mov    %eax,-0x2c(%rsp)
  401bee:	8b 44 24 e4          	mov    -0x1c(%rsp),%eax
  401bf2:	69 c0 85 e7 00 00    	imul   $0xe785,%eax,%eax
  401bf8:	89 44 24 e4          	mov    %eax,-0x1c(%rsp)
  401bfc:	8b 44 24 c8          	mov    -0x38(%rsp),%eax
  401c00:	69 c0 f0 58 00 00    	imul   $0x58f0,%eax,%eax
  401c06:	89 44 24 c8          	mov    %eax,-0x38(%rsp)
  401c0a:	8b 44 24 d0          	mov    -0x30(%rsp),%eax
  401c0e:	69 c0 cc 77 00 00    	imul   $0x77cc,%eax,%eax
  401c14:	89 44 24 d0          	mov    %eax,-0x30(%rsp)
  401c18:	8b 44 24 cc          	mov    -0x34(%rsp),%eax
  401c1c:	69 c0 52 04 00 00    	imul   $0x452,%eax,%eax
  401c22:	89 44 24 cc          	mov    %eax,-0x34(%rsp)
  401c26:	8b 44 24 dc          	mov    -0x24(%rsp),%eax
  401c2a:	69 c0 a5 af 00 00    	imul   $0xafa5,%eax,%eax
  401c30:	89 44 24 dc          	mov    %eax,-0x24(%rsp)
  401c34:	8b 44 24 dc          	mov    -0x24(%rsp),%eax
  401c38:	69 c0 e4 13 00 00    	imul   $0x13e4,%eax,%eax
  401c3e:	89 44 24 dc          	mov    %eax,-0x24(%rsp)
  401c42:	b8 00 00 00 00       	mov    $0x0,%eax
  401c47:	ba 00 00 00 00       	mov    $0x0,%edx
  401c4c:	eb 0b                	jmp    401c59 <scramble+0x582>
  401c4e:	89 c1                	mov    %eax,%ecx
  401c50:	8b 4c 8c c8          	mov    -0x38(%rsp,%rcx,4),%ecx
  401c54:	01 ca                	add    %ecx,%edx
  401c56:	83 c0 01             	add    $0x1,%eax
  401c59:	83 f8 09             	cmp    $0x9,%eax
  401c5c:	76 f0                	jbe    401c4e <scramble+0x577>
  401c5e:	89 d0                	mov    %edx,%eax
  401c60:	c3                   	retq   

0000000000401c61 <getbuf>:
  401c61:	48 83 ec 28          	sub    $0x28,%rsp
  401c65:	48 89 e7             	mov    %rsp,%rdi
  401c68:	e8 4a 03 00 00       	callq  401fb7 <Gets>
  401c6d:	b8 01 00 00 00       	mov    $0x1,%eax
  401c72:	48 83 c4 28          	add    $0x28,%rsp
  401c76:	c3                   	retq   

0000000000401c77 <touch1>:
  401c77:	48 83 ec 08          	sub    $0x8,%rsp
  401c7b:	c7 05 bf 58 00 00 01 	movl   $0x1,0x58bf(%rip)        # 407544 <vlevel>
  401c82:	00 00 00 
  401c85:	bf 58 46 40 00       	mov    $0x404658,%edi
  401c8a:	e8 f1 f3 ff ff       	callq  401080 <puts@plt>
  401c8f:	bf 01 00 00 00       	mov    $0x1,%edi
  401c94:	e8 11 05 00 00       	callq  4021aa <validate>
  401c99:	bf 00 00 00 00       	mov    $0x0,%edi
  401c9e:	e8 6d f5 ff ff       	callq  401210 <exit@plt>

0000000000401ca3 <touch2>:
  401ca3:	48 83 ec 08          	sub    $0x8,%rsp
  401ca7:	89 fe                	mov    %edi,%esi
  401ca9:	c7 05 91 58 00 00 02 	movl   $0x2,0x5891(%rip)        # 407544 <vlevel>
  401cb0:	00 00 00 
  401cb3:	39 3d 93 58 00 00    	cmp    %edi,0x5893(%rip)        # 40754c <cookie>
  401cb9:	74 23                	je     401cde <touch2+0x3b>
  401cbb:	bf a8 46 40 00       	mov    $0x4046a8,%edi
  401cc0:	b8 00 00 00 00       	mov    $0x0,%eax
  401cc5:	e8 f6 f3 ff ff       	callq  4010c0 <printf@plt>
  401cca:	bf 02 00 00 00       	mov    $0x2,%edi
  401ccf:	e8 88 05 00 00       	callq  40225c <fail>
  401cd4:	bf 00 00 00 00       	mov    $0x0,%edi
  401cd9:	e8 32 f5 ff ff       	callq  401210 <exit@plt>
  401cde:	bf 80 46 40 00       	mov    $0x404680,%edi
  401ce3:	b8 00 00 00 00       	mov    $0x0,%eax
  401ce8:	e8 d3 f3 ff ff       	callq  4010c0 <printf@plt>
  401ced:	bf 02 00 00 00       	mov    $0x2,%edi
  401cf2:	e8 b3 04 00 00       	callq  4021aa <validate>
  401cf7:	eb db                	jmp    401cd4 <touch2+0x31>

0000000000401cf9 <hexmatch>:
  401cf9:	41 54                	push   %r12
  401cfb:	55                   	push   %rbp
  401cfc:	53                   	push   %rbx
  401cfd:	48 83 ec 70          	sub    $0x70,%rsp
  401d01:	89 fd                	mov    %edi,%ebp
  401d03:	48 89 f3             	mov    %rsi,%rbx
  401d06:	e8 85 f4 ff ff       	callq  401190 <random@plt>
  401d0b:	48 89 c1             	mov    %rax,%rcx
  401d0e:	48 ba 0b d7 a3 70 3d 	movabs $0xa3d70a3d70a3d70b,%rdx
  401d15:	0a d7 a3 
  401d18:	48 f7 ea             	imul   %rdx
  401d1b:	48 01 ca             	add    %rcx,%rdx
  401d1e:	48 c1 fa 06          	sar    $0x6,%rdx
  401d22:	48 89 c8             	mov    %rcx,%rax
  401d25:	48 c1 f8 3f          	sar    $0x3f,%rax
  401d29:	48 29 c2             	sub    %rax,%rdx
  401d2c:	48 8d 04 92          	lea    (%rdx,%rdx,4),%rax
  401d30:	48 8d 04 80          	lea    (%rax,%rax,4),%rax
  401d34:	48 c1 e0 02          	shl    $0x2,%rax
  401d38:	48 29 c1             	sub    %rax,%rcx
  401d3b:	4c 8d 24 0c          	lea    (%rsp,%rcx,1),%r12
  401d3f:	89 ea                	mov    %ebp,%edx
  401d41:	be 75 46 40 00       	mov    $0x404675,%esi
  401d46:	4c 89 e7             	mov    %r12,%rdi
  401d49:	b8 00 00 00 00       	mov    $0x0,%eax
  401d4e:	e8 ad f4 ff ff       	callq  401200 <sprintf@plt>
  401d53:	ba 09 00 00 00       	mov    $0x9,%edx
  401d58:	4c 89 e6             	mov    %r12,%rsi
  401d5b:	48 89 df             	mov    %rbx,%rdi
  401d5e:	e8 fd f2 ff ff       	callq  401060 <strncmp@plt>
  401d63:	85 c0                	test   %eax,%eax
  401d65:	0f 94 c0             	sete   %al
  401d68:	0f b6 c0             	movzbl %al,%eax
  401d6b:	48 83 c4 70          	add    $0x70,%rsp
  401d6f:	5b                   	pop    %rbx
  401d70:	5d                   	pop    %rbp
  401d71:	41 5c                	pop    %r12
  401d73:	c3                   	retq   

0000000000401d74 <touch3>:
  401d74:	53                   	push   %rbx
  401d75:	48 89 fb             	mov    %rdi,%rbx
  401d78:	c7 05 c2 57 00 00 03 	movl   $0x3,0x57c2(%rip)        # 407544 <vlevel>
  401d7f:	00 00 00 
  401d82:	48 89 fe             	mov    %rdi,%rsi
  401d85:	8b 3d c1 57 00 00    	mov    0x57c1(%rip),%edi        # 40754c <cookie>
  401d8b:	e8 69 ff ff ff       	callq  401cf9 <hexmatch>
  401d90:	85 c0                	test   %eax,%eax
  401d92:	74 26                	je     401dba <touch3+0x46>
  401d94:	48 89 de             	mov    %rbx,%rsi
  401d97:	bf d0 46 40 00       	mov    $0x4046d0,%edi
  401d9c:	b8 00 00 00 00       	mov    $0x0,%eax
  401da1:	e8 1a f3 ff ff       	callq  4010c0 <printf@plt>
  401da6:	bf 03 00 00 00       	mov    $0x3,%edi
  401dab:	e8 fa 03 00 00       	callq  4021aa <validate>
  401db0:	bf 00 00 00 00       	mov    $0x0,%edi
  401db5:	e8 56 f4 ff ff       	callq  401210 <exit@plt>
  401dba:	48 89 de             	mov    %rbx,%rsi
  401dbd:	bf f8 46 40 00       	mov    $0x4046f8,%edi
  401dc2:	b8 00 00 00 00       	mov    $0x0,%eax
  401dc7:	e8 f4 f2 ff ff       	callq  4010c0 <printf@plt>
  401dcc:	bf 03 00 00 00       	mov    $0x3,%edi
  401dd1:	e8 86 04 00 00       	callq  40225c <fail>
  401dd6:	eb d8                	jmp    401db0 <touch3+0x3c>

0000000000401dd8 <test>:
  401dd8:	48 83 ec 08          	sub    $0x8,%rsp
  401ddc:	b8 00 00 00 00       	mov    $0x0,%eax
  401de1:	e8 7b fe ff ff       	callq  401c61 <getbuf>
  401de6:	89 c6                	mov    %eax,%esi
  401de8:	bf 20 47 40 00       	mov    $0x404720,%edi
  401ded:	b8 00 00 00 00       	mov    $0x0,%eax
  401df2:	e8 c9 f2 ff ff       	callq  4010c0 <printf@plt>
  401df7:	48 83 c4 08          	add    $0x8,%rsp
  401dfb:	c3                   	retq   

0000000000401dfc <start_farm>:
  401dfc:	b8 01 00 00 00       	mov    $0x1,%eax
  401e01:	c3                   	retq   

0000000000401e02 <getval_267>:
  401e02:	b8 cc 58 90 90       	mov    $0x909058cc,%eax
  401e07:	c3                   	retq   

0000000000401e08 <getval_431>:
  401e08:	b8 48 89 c7 c3       	mov    $0xc3c78948,%eax
  401e0d:	c3                   	retq   

0000000000401e0e <getval_157>:
  401e0e:	b8 0c 48 09 c7       	mov    $0xc709480c,%eax
  401e13:	c3                   	retq   

0000000000401e14 <setval_117>:
  401e14:	c7 07 58 c3 6b 1f    	movl   $0x1f6bc358,(%rdi)
  401e1a:	c3                   	retq   

0000000000401e1b <setval_317>:
  401e1b:	c7 07 58 89 c7 c3    	movl   $0xc3c78958,(%rdi)
  401e21:	c3                   	retq   

0000000000401e22 <addval_411>:
  401e22:	8d 87 63 18 c3 43    	lea    0x43c31863(%rdi),%eax
  401e28:	c3                   	retq   

0000000000401e29 <getval_121>:
  401e29:	b8 d8 90 90 c3       	mov    $0xc39090d8,%eax
  401e2e:	c3                   	retq   

0000000000401e2f <setval_312>:
  401e2f:	c7 07 48 89 c7 c3    	movl   $0xc3c78948,(%rdi)
  401e35:	c3                   	retq   

0000000000401e36 <mid_farm>:
  401e36:	b8 01 00 00 00       	mov    $0x1,%eax
  401e3b:	c3                   	retq   

0000000000401e3c <add_xy>:
  401e3c:	48 8d 04 37          	lea    (%rdi,%rsi,1),%rax
  401e40:	c3                   	retq   

0000000000401e41 <addval_315>:
  401e41:	8d 87 89 ca 20 c0    	lea    -0x3fdf3577(%rdi),%eax
  401e47:	c3                   	retq   

0000000000401e48 <getval_196>:
  401e48:	b8 89 c1 18 c9       	mov    $0xc918c189,%eax
  401e4d:	c3                   	retq   

0000000000401e4e <setval_232>:
  401e4e:	c7 07 08 89 e0 c3    	movl   $0xc3e08908,(%rdi)
  401e54:	c3                   	retq   

0000000000401e55 <setval_120>:
  401e55:	c7 07 c9 ca 84 d2    	movl   $0xd284cac9,(%rdi)
  401e5b:	c3                   	retq   

0000000000401e5c <getval_371>:
  401e5c:	b8 48 89 e0 91       	mov    $0x91e08948,%eax
  401e61:	c3                   	retq   

0000000000401e62 <getval_162>:
  401e62:	b8 89 c1 84 c9       	mov    $0xc984c189,%eax
  401e67:	c3                   	retq   

0000000000401e68 <addval_311>:
  401e68:	8d 87 48 89 e0 90    	lea    -0x6f1f76b8(%rdi),%eax
  401e6e:	c3                   	retq   

0000000000401e6f <addval_428>:
  401e6f:	8d 87 89 ca 94 c0    	lea    -0x3f6b3577(%rdi),%eax
  401e75:	c3                   	retq   

0000000000401e76 <addval_497>:
  401e76:	8d 87 8b ca 20 c9    	lea    -0x36df3575(%rdi),%eax
  401e7c:	c3                   	retq   

0000000000401e7d <setval_127>:
  401e7d:	c7 07 89 d6 90 90    	movl   $0x9090d689,(%rdi)
  401e83:	c3                   	retq   

0000000000401e84 <setval_314>:
  401e84:	c7 07 09 d6 08 c0    	movl   $0xc008d609,(%rdi)
  401e8a:	c3                   	retq   

0000000000401e8b <setval_309>:
  401e8b:	c7 07 27 89 ca 90    	movl   $0x90ca8927,(%rdi)
  401e91:	c3                   	retq   

0000000000401e92 <setval_324>:
  401e92:	c7 07 89 ca a4 c0    	movl   $0xc0a4ca89,(%rdi)
  401e98:	c3                   	retq   

0000000000401e99 <setval_101>:
  401e99:	c7 07 8d ca 84 c0    	movl   $0xc084ca8d,(%rdi)
  401e9f:	c3                   	retq   

0000000000401ea0 <setval_445>:
  401ea0:	c7 07 c9 ca c3 fd    	movl   $0xfdc3cac9,(%rdi)
  401ea6:	c3                   	retq   

0000000000401ea7 <getval_152>:
  401ea7:	b8 48 89 e0 92       	mov    $0x92e08948,%eax
  401eac:	c3                   	retq   

0000000000401ead <getval_440>:
  401ead:	b8 81 c1 38 c0       	mov    $0xc038c181,%eax
  401eb2:	c3                   	retq   

0000000000401eb3 <setval_444>:
  401eb3:	c7 07 4a 89 c1 94    	movl   $0x94c1894a,(%rdi)
  401eb9:	c3                   	retq   

0000000000401eba <setval_478>:
  401eba:	c7 07 48 89 e0 c2    	movl   $0xc2e08948,(%rdi)
  401ec0:	c3                   	retq   

0000000000401ec1 <addval_115>:
  401ec1:	8d 87 99 89 d6 c1    	lea    -0x3e297667(%rdi),%eax
  401ec7:	c3                   	retq   

0000000000401ec8 <setval_385>:
  401ec8:	c7 07 89 d6 48 c0    	movl   $0xc048d689,(%rdi)
  401ece:	c3                   	retq   

0000000000401ecf <addval_112>:
  401ecf:	8d 87 68 89 e0 c3    	lea    -0x3c1f7698(%rdi),%eax
  401ed5:	c3                   	retq   

0000000000401ed6 <getval_339>:
  401ed6:	b8 89 c1 18 c9       	mov    $0xc918c189,%eax
  401edb:	c3                   	retq   

0000000000401edc <addval_288>:
  401edc:	8d 87 06 d4 89 d6    	lea    -0x29762bfa(%rdi),%eax
  401ee2:	c3                   	retq   

0000000000401ee3 <addval_136>:
  401ee3:	8d 87 28 89 d6 92    	lea    -0x6d2976d8(%rdi),%eax
  401ee9:	c3                   	retq   

0000000000401eea <setval_353>:
  401eea:	c7 07 99 d6 08 c0    	movl   $0xc008d699,(%rdi)
  401ef0:	c3                   	retq   

0000000000401ef1 <setval_218>:
  401ef1:	c7 07 89 d6 94 c9    	movl   $0xc994d689,(%rdi)
  401ef7:	c3                   	retq   

0000000000401ef8 <addval_308>:
  401ef8:	8d 87 48 89 e0 c2    	lea    -0x3d1f76b8(%rdi),%eax
  401efe:	c3                   	retq   

0000000000401eff <getval_189>:
  401eff:	b8 89 c1 18 d2       	mov    $0xd218c189,%eax
  401f04:	c3                   	retq   

0000000000401f05 <getval_446>:
  401f05:	b8 89 c1 90 90       	mov    $0x9090c189,%eax
  401f0a:	c3                   	retq   

0000000000401f0b <setval_419>:
  401f0b:	c7 07 48 89 e0 90    	movl   $0x90e08948,(%rdi)
  401f11:	c3                   	retq   

0000000000401f12 <getval_245>:
  401f12:	b8 89 c1 c4 c0       	mov    $0xc0c4c189,%eax
  401f17:	c3                   	retq   

0000000000401f18 <end_farm>:
  401f18:	b8 01 00 00 00       	mov    $0x1,%eax
  401f1d:	c3                   	retq   

0000000000401f1e <save_char>:
  401f1e:	8b 05 40 62 00 00    	mov    0x6240(%rip),%eax        # 408164 <gets_cnt>
  401f24:	3d ff 03 00 00       	cmp    $0x3ff,%eax
  401f29:	7f 49                	jg     401f74 <save_char+0x56>
  401f2b:	89 f9                	mov    %edi,%ecx
  401f2d:	c0 e9 04             	shr    $0x4,%cl
  401f30:	8d 14 40             	lea    (%rax,%rax,2),%edx
  401f33:	83 e1 0f             	and    $0xf,%ecx
  401f36:	0f b6 b1 40 4a 40 00 	movzbl 0x404a40(%rcx),%esi
  401f3d:	48 63 ca             	movslq %edx,%rcx
  401f40:	40 88 b1 60 75 40 00 	mov    %sil,0x407560(%rcx)
  401f47:	8d 4a 01             	lea    0x1(%rdx),%ecx
  401f4a:	83 e7 0f             	and    $0xf,%edi
  401f4d:	0f b6 b7 40 4a 40 00 	movzbl 0x404a40(%rdi),%esi
  401f54:	48 63 c9             	movslq %ecx,%rcx
  401f57:	40 88 b1 60 75 40 00 	mov    %sil,0x407560(%rcx)
  401f5e:	83 c2 02             	add    $0x2,%edx
  401f61:	48 63 d2             	movslq %edx,%rdx
  401f64:	c6 82 60 75 40 00 20 	movb   $0x20,0x407560(%rdx)
  401f6b:	83 c0 01             	add    $0x1,%eax
  401f6e:	89 05 f0 61 00 00    	mov    %eax,0x61f0(%rip)        # 408164 <gets_cnt>
  401f74:	c3                   	retq   

0000000000401f75 <save_term>:
  401f75:	8b 05 e9 61 00 00    	mov    0x61e9(%rip),%eax        # 408164 <gets_cnt>
  401f7b:	8d 04 40             	lea    (%rax,%rax,2),%eax
  401f7e:	48 98                	cltq   
  401f80:	c6 80 60 75 40 00 00 	movb   $0x0,0x407560(%rax)
  401f87:	c3                   	retq   

0000000000401f88 <check_fail>:
  401f88:	48 83 ec 08          	sub    $0x8,%rsp
  401f8c:	0f be 35 b1 51 00 00 	movsbl 0x51b1(%rip),%esi        # 407144 <target_prefix>
  401f93:	b9 60 75 40 00       	mov    $0x407560,%ecx
  401f98:	8b 15 a2 55 00 00    	mov    0x55a2(%rip),%edx        # 407540 <check_level>
  401f9e:	bf 43 47 40 00       	mov    $0x404743,%edi
  401fa3:	b8 00 00 00 00       	mov    $0x0,%eax
  401fa8:	e8 13 f1 ff ff       	callq  4010c0 <printf@plt>
  401fad:	bf 01 00 00 00       	mov    $0x1,%edi
  401fb2:	e8 59 f2 ff ff       	callq  401210 <exit@plt>

0000000000401fb7 <Gets>:
  401fb7:	41 54                	push   %r12
  401fb9:	55                   	push   %rbp
  401fba:	53                   	push   %rbx
  401fbb:	49 89 fc             	mov    %rdi,%r12
  401fbe:	c7 05 9c 61 00 00 00 	movl   $0x0,0x619c(%rip)        # 408164 <gets_cnt>
  401fc5:	00 00 00 
  401fc8:	48 89 fb             	mov    %rdi,%rbx
  401fcb:	eb 11                	jmp    401fde <Gets+0x27>
  401fcd:	48 8d 6b 01          	lea    0x1(%rbx),%rbp
  401fd1:	88 03                	mov    %al,(%rbx)
  401fd3:	0f b6 f8             	movzbl %al,%edi
  401fd6:	e8 43 ff ff ff       	callq  401f1e <save_char>
  401fdb:	48 89 eb             	mov    %rbp,%rbx
  401fde:	48 8b 3d 53 55 00 00 	mov    0x5553(%rip),%rdi        # 407538 <infile>
  401fe5:	e8 56 f2 ff ff       	callq  401240 <getc@plt>
  401fea:	83 f8 ff             	cmp    $0xffffffff,%eax
  401fed:	74 05                	je     401ff4 <Gets+0x3d>
  401fef:	83 f8 0a             	cmp    $0xa,%eax
  401ff2:	75 d9                	jne    401fcd <Gets+0x16>
  401ff4:	c6 03 00             	movb   $0x0,(%rbx)
  401ff7:	b8 00 00 00 00       	mov    $0x0,%eax
  401ffc:	e8 74 ff ff ff       	callq  401f75 <save_term>
  402001:	4c 89 e0             	mov    %r12,%rax
  402004:	5b                   	pop    %rbx
  402005:	5d                   	pop    %rbp
  402006:	41 5c                	pop    %r12
  402008:	c3                   	retq   

0000000000402009 <notify_server>:
  402009:	83 3d 40 55 00 00 00 	cmpl   $0x0,0x5540(%rip)        # 407550 <is_checker>
  402010:	0f 85 93 01 00 00    	jne    4021a9 <notify_server+0x1a0>
  402016:	55                   	push   %rbp
  402017:	53                   	push   %rbx
  402018:	48 81 ec 08 40 00 00 	sub    $0x4008,%rsp
  40201f:	89 fb                	mov    %edi,%ebx
  402021:	81 3d 39 61 00 00 9c 	cmpl   $0x1f9c,0x6139(%rip)        # 408164 <gets_cnt>
  402028:	1f 00 00 
  40202b:	0f 8f ad 00 00 00    	jg     4020de <notify_server+0xd5>
  402031:	44 0f be 0d 0b 51 00 	movsbl 0x510b(%rip),%r9d        # 407144 <target_prefix>
  402038:	00 
  402039:	83 3d 68 54 00 00 00 	cmpl   $0x0,0x5468(%rip)        # 4074a8 <notify>
  402040:	0f 84 b1 00 00 00    	je     4020f7 <notify_server+0xee>
  402046:	44 8b 05 fb 54 00 00 	mov    0x54fb(%rip),%r8d        # 407548 <authkey>
  40204d:	85 db                	test   %ebx,%ebx
  40204f:	0f 84 ad 00 00 00    	je     402102 <notify_server+0xf9>
  402055:	bd 59 47 40 00       	mov    $0x404759,%ebp
  40205a:	68 60 75 40 00       	pushq  $0x407560
  40205f:	56                   	push   %rsi
  402060:	48 89 e9             	mov    %rbp,%rcx
  402063:	8b 15 ff 50 00 00    	mov    0x50ff(%rip),%edx        # 407168 <target_id>
  402069:	be 63 47 40 00       	mov    $0x404763,%esi
  40206e:	48 8d bc 24 10 20 00 	lea    0x2010(%rsp),%rdi
  402075:	00 
  402076:	b8 00 00 00 00       	mov    $0x0,%eax
  40207b:	e8 80 f1 ff ff       	callq  401200 <sprintf@plt>
  402080:	48 83 c4 10          	add    $0x10,%rsp
  402084:	83 3d 1d 54 00 00 00 	cmpl   $0x0,0x541d(%rip)        # 4074a8 <notify>
  40208b:	0f 84 ab 00 00 00    	je     40213c <notify_server+0x133>
  402091:	85 db                	test   %ebx,%ebx
  402093:	0f 84 8f 00 00 00    	je     402128 <notify_server+0x11f>
  402099:	49 89 e1             	mov    %rsp,%r9
  40209c:	41 b8 00 00 00 00    	mov    $0x0,%r8d
  4020a2:	48 8d 8c 24 00 20 00 	lea    0x2000(%rsp),%rcx
  4020a9:	00 
  4020aa:	48 8b 15 bf 50 00 00 	mov    0x50bf(%rip),%rdx        # 407170 <lab>
  4020b1:	48 8b 35 e8 53 00 00 	mov    0x53e8(%rip),%rsi        # 4074a0 <course>
  4020b8:	48 8b 3d a1 50 00 00 	mov    0x50a1(%rip),%rdi        # 407160 <user_id>
  4020bf:	e8 5b 0f 00 00       	callq  40301f <driver_post>
  4020c4:	85 c0                	test   %eax,%eax
  4020c6:	78 44                	js     40210c <notify_server+0x103>
  4020c8:	bf a8 48 40 00       	mov    $0x4048a8,%edi
  4020cd:	e8 ae ef ff ff       	callq  401080 <puts@plt>
  4020d2:	bf 8b 47 40 00       	mov    $0x40478b,%edi
  4020d7:	e8 a4 ef ff ff       	callq  401080 <puts@plt>
  4020dc:	eb 54                	jmp    402132 <notify_server+0x129>
  4020de:	bf 78 48 40 00       	mov    $0x404878,%edi
  4020e3:	b8 00 00 00 00       	mov    $0x0,%eax
  4020e8:	e8 d3 ef ff ff       	callq  4010c0 <printf@plt>
  4020ed:	bf 01 00 00 00       	mov    $0x1,%edi
  4020f2:	e8 19 f1 ff ff       	callq  401210 <exit@plt>
  4020f7:	41 b8 ff ff ff ff    	mov    $0xffffffff,%r8d
  4020fd:	e9 4b ff ff ff       	jmpq   40204d <notify_server+0x44>
  402102:	bd 5e 47 40 00       	mov    $0x40475e,%ebp
  402107:	e9 4e ff ff ff       	jmpq   40205a <notify_server+0x51>
  40210c:	48 89 e6             	mov    %rsp,%rsi
  40210f:	bf 7f 47 40 00       	mov    $0x40477f,%edi
  402114:	b8 00 00 00 00       	mov    $0x0,%eax
  402119:	e8 a2 ef ff ff       	callq  4010c0 <printf@plt>
  40211e:	bf 01 00 00 00       	mov    $0x1,%edi
  402123:	e8 e8 f0 ff ff       	callq  401210 <exit@plt>
  402128:	bf 95 47 40 00       	mov    $0x404795,%edi
  40212d:	e8 4e ef ff ff       	callq  401080 <puts@plt>
  402132:	48 81 c4 08 40 00 00 	add    $0x4008,%rsp
  402139:	5b                   	pop    %rbx
  40213a:	5d                   	pop    %rbp
  40213b:	c3                   	retq   
  40213c:	48 89 ee             	mov    %rbp,%rsi
  40213f:	bf e0 48 40 00       	mov    $0x4048e0,%edi
  402144:	b8 00 00 00 00       	mov    $0x0,%eax
  402149:	e8 72 ef ff ff       	callq  4010c0 <printf@plt>
  40214e:	48 8b 35 0b 50 00 00 	mov    0x500b(%rip),%rsi        # 407160 <user_id>
  402155:	bf 9c 47 40 00       	mov    $0x40479c,%edi
  40215a:	b8 00 00 00 00       	mov    $0x0,%eax
  40215f:	e8 5c ef ff ff       	callq  4010c0 <printf@plt>
  402164:	48 8b 35 35 53 00 00 	mov    0x5335(%rip),%rsi        # 4074a0 <course>
  40216b:	bf a9 47 40 00       	mov    $0x4047a9,%edi
  402170:	b8 00 00 00 00       	mov    $0x0,%eax
  402175:	e8 46 ef ff ff       	callq  4010c0 <printf@plt>
  40217a:	48 8b 35 ef 4f 00 00 	mov    0x4fef(%rip),%rsi        # 407170 <lab>
  402181:	bf b5 47 40 00       	mov    $0x4047b5,%edi
  402186:	b8 00 00 00 00       	mov    $0x0,%eax
  40218b:	e8 30 ef ff ff       	callq  4010c0 <printf@plt>
  402190:	48 8d b4 24 00 20 00 	lea    0x2000(%rsp),%rsi
  402197:	00 
  402198:	bf be 47 40 00       	mov    $0x4047be,%edi
  40219d:	b8 00 00 00 00       	mov    $0x0,%eax
  4021a2:	e8 19 ef ff ff       	callq  4010c0 <printf@plt>
  4021a7:	eb 89                	jmp    402132 <notify_server+0x129>
  4021a9:	c3                   	retq   

00000000004021aa <validate>:
  4021aa:	53                   	push   %rbx
  4021ab:	89 fb                	mov    %edi,%ebx
  4021ad:	83 3d 9c 53 00 00 00 	cmpl   $0x0,0x539c(%rip)        # 407550 <is_checker>
  4021b4:	74 60                	je     402216 <validate+0x6c>
  4021b6:	39 3d 88 53 00 00    	cmp    %edi,0x5388(%rip)        # 407544 <vlevel>
  4021bc:	75 29                	jne    4021e7 <validate+0x3d>
  4021be:	8b 35 7c 53 00 00    	mov    0x537c(%rip),%esi        # 407540 <check_level>
  4021c4:	39 fe                	cmp    %edi,%esi
  4021c6:	75 33                	jne    4021fb <validate+0x51>
  4021c8:	0f be 35 75 4f 00 00 	movsbl 0x4f75(%rip),%esi        # 407144 <target_prefix>
  4021cf:	b9 60 75 40 00       	mov    $0x407560,%ecx
  4021d4:	89 fa                	mov    %edi,%edx
  4021d6:	bf e8 47 40 00       	mov    $0x4047e8,%edi
  4021db:	b8 00 00 00 00       	mov    $0x0,%eax
  4021e0:	e8 db ee ff ff       	callq  4010c0 <printf@plt>
  4021e5:	5b                   	pop    %rbx
  4021e6:	c3                   	retq   
  4021e7:	bf ca 47 40 00       	mov    $0x4047ca,%edi
  4021ec:	e8 8f ee ff ff       	callq  401080 <puts@plt>
  4021f1:	b8 00 00 00 00       	mov    $0x0,%eax
  4021f6:	e8 8d fd ff ff       	callq  401f88 <check_fail>
  4021fb:	89 fa                	mov    %edi,%edx
  4021fd:	bf 08 49 40 00       	mov    $0x404908,%edi
  402202:	b8 00 00 00 00       	mov    $0x0,%eax
  402207:	e8 b4 ee ff ff       	callq  4010c0 <printf@plt>
  40220c:	b8 00 00 00 00       	mov    $0x0,%eax
  402211:	e8 72 fd ff ff       	callq  401f88 <check_fail>
  402216:	39 3d 28 53 00 00    	cmp    %edi,0x5328(%rip)        # 407544 <vlevel>
  40221c:	74 18                	je     402236 <validate+0x8c>
  40221e:	bf ca 47 40 00       	mov    $0x4047ca,%edi
  402223:	e8 58 ee ff ff       	callq  401080 <puts@plt>
  402228:	89 de                	mov    %ebx,%esi
  40222a:	bf 00 00 00 00       	mov    $0x0,%edi
  40222f:	e8 d5 fd ff ff       	callq  402009 <notify_server>
  402234:	eb af                	jmp    4021e5 <validate+0x3b>
  402236:	0f be 15 07 4f 00 00 	movsbl 0x4f07(%rip),%edx        # 407144 <target_prefix>
  40223d:	89 fe                	mov    %edi,%esi
  40223f:	bf 30 49 40 00       	mov    $0x404930,%edi
  402244:	b8 00 00 00 00       	mov    $0x0,%eax
  402249:	e8 72 ee ff ff       	callq  4010c0 <printf@plt>
  40224e:	89 de                	mov    %ebx,%esi
  402250:	bf 01 00 00 00       	mov    $0x1,%edi
  402255:	e8 af fd ff ff       	callq  402009 <notify_server>
  40225a:	eb 89                	jmp    4021e5 <validate+0x3b>

000000000040225c <fail>:
  40225c:	48 83 ec 08          	sub    $0x8,%rsp
  402260:	83 3d e9 52 00 00 00 	cmpl   $0x0,0x52e9(%rip)        # 407550 <is_checker>
  402267:	75 11                	jne    40227a <fail+0x1e>
  402269:	89 fe                	mov    %edi,%esi
  40226b:	bf 00 00 00 00       	mov    $0x0,%edi
  402270:	e8 94 fd ff ff       	callq  402009 <notify_server>
  402275:	48 83 c4 08          	add    $0x8,%rsp
  402279:	c3                   	retq   
  40227a:	b8 00 00 00 00       	mov    $0x0,%eax
  40227f:	e8 04 fd ff ff       	callq  401f88 <check_fail>

0000000000402284 <bushandler>:
  402284:	48 83 ec 08          	sub    $0x8,%rsp
  402288:	83 3d c1 52 00 00 00 	cmpl   $0x0,0x52c1(%rip)        # 407550 <is_checker>
  40228f:	74 14                	je     4022a5 <bushandler+0x21>
  402291:	bf fd 47 40 00       	mov    $0x4047fd,%edi
  402296:	e8 e5 ed ff ff       	callq  401080 <puts@plt>
  40229b:	b8 00 00 00 00       	mov    $0x0,%eax
  4022a0:	e8 e3 fc ff ff       	callq  401f88 <check_fail>
  4022a5:	bf 68 49 40 00       	mov    $0x404968,%edi
  4022aa:	e8 d1 ed ff ff       	callq  401080 <puts@plt>
  4022af:	bf 07 48 40 00       	mov    $0x404807,%edi
  4022b4:	e8 c7 ed ff ff       	callq  401080 <puts@plt>
  4022b9:	be 00 00 00 00       	mov    $0x0,%esi
  4022be:	bf 00 00 00 00       	mov    $0x0,%edi
  4022c3:	e8 41 fd ff ff       	callq  402009 <notify_server>
  4022c8:	bf 01 00 00 00       	mov    $0x1,%edi
  4022cd:	e8 3e ef ff ff       	callq  401210 <exit@plt>

00000000004022d2 <seghandler>:
  4022d2:	48 83 ec 08          	sub    $0x8,%rsp
  4022d6:	83 3d 73 52 00 00 00 	cmpl   $0x0,0x5273(%rip)        # 407550 <is_checker>
  4022dd:	74 14                	je     4022f3 <seghandler+0x21>
  4022df:	bf 1d 48 40 00       	mov    $0x40481d,%edi
  4022e4:	e8 97 ed ff ff       	callq  401080 <puts@plt>
  4022e9:	b8 00 00 00 00       	mov    $0x0,%eax
  4022ee:	e8 95 fc ff ff       	callq  401f88 <check_fail>
  4022f3:	bf 88 49 40 00       	mov    $0x404988,%edi
  4022f8:	e8 83 ed ff ff       	callq  401080 <puts@plt>
  4022fd:	bf 07 48 40 00       	mov    $0x404807,%edi
  402302:	e8 79 ed ff ff       	callq  401080 <puts@plt>
  402307:	be 00 00 00 00       	mov    $0x0,%esi
  40230c:	bf 00 00 00 00       	mov    $0x0,%edi
  402311:	e8 f3 fc ff ff       	callq  402009 <notify_server>
  402316:	bf 01 00 00 00       	mov    $0x1,%edi
  40231b:	e8 f0 ee ff ff       	callq  401210 <exit@plt>

0000000000402320 <illegalhandler>:
  402320:	48 83 ec 08          	sub    $0x8,%rsp
  402324:	83 3d 25 52 00 00 00 	cmpl   $0x0,0x5225(%rip)        # 407550 <is_checker>
  40232b:	74 14                	je     402341 <illegalhandler+0x21>
  40232d:	bf 30 48 40 00       	mov    $0x404830,%edi
  402332:	e8 49 ed ff ff       	callq  401080 <puts@plt>
  402337:	b8 00 00 00 00       	mov    $0x0,%eax
  40233c:	e8 47 fc ff ff       	callq  401f88 <check_fail>
  402341:	bf b0 49 40 00       	mov    $0x4049b0,%edi
  402346:	e8 35 ed ff ff       	callq  401080 <puts@plt>
  40234b:	bf 07 48 40 00       	mov    $0x404807,%edi
  402350:	e8 2b ed ff ff       	callq  401080 <puts@plt>
  402355:	be 00 00 00 00       	mov    $0x0,%esi
  40235a:	bf 00 00 00 00       	mov    $0x0,%edi
  40235f:	e8 a5 fc ff ff       	callq  402009 <notify_server>
  402364:	bf 01 00 00 00       	mov    $0x1,%edi
  402369:	e8 a2 ee ff ff       	callq  401210 <exit@plt>

000000000040236e <sigalrmhandler>:
  40236e:	48 83 ec 08          	sub    $0x8,%rsp
  402372:	83 3d d7 51 00 00 00 	cmpl   $0x0,0x51d7(%rip)        # 407550 <is_checker>
  402379:	74 14                	je     40238f <sigalrmhandler+0x21>
  40237b:	bf 44 48 40 00       	mov    $0x404844,%edi
  402380:	e8 fb ec ff ff       	callq  401080 <puts@plt>
  402385:	b8 00 00 00 00       	mov    $0x0,%eax
  40238a:	e8 f9 fb ff ff       	callq  401f88 <check_fail>
  40238f:	be 05 00 00 00       	mov    $0x5,%esi
  402394:	bf e0 49 40 00       	mov    $0x4049e0,%edi
  402399:	b8 00 00 00 00       	mov    $0x0,%eax
  40239e:	e8 1d ed ff ff       	callq  4010c0 <printf@plt>
  4023a3:	be 00 00 00 00       	mov    $0x0,%esi
  4023a8:	bf 00 00 00 00       	mov    $0x0,%edi
  4023ad:	e8 57 fc ff ff       	callq  402009 <notify_server>
  4023b2:	bf 01 00 00 00       	mov    $0x1,%edi
  4023b7:	e8 54 ee ff ff       	callq  401210 <exit@plt>

00000000004023bc <launch>:
  4023bc:	55                   	push   %rbp
  4023bd:	48 89 e5             	mov    %rsp,%rbp
  4023c0:	48 89 fa             	mov    %rdi,%rdx
  4023c3:	48 8d 47 17          	lea    0x17(%rdi),%rax
  4023c7:	48 83 e0 f0          	and    $0xfffffffffffffff0,%rax
  4023cb:	48 29 c4             	sub    %rax,%rsp
  4023ce:	48 8d 7c 24 0f       	lea    0xf(%rsp),%rdi
  4023d3:	48 83 e7 f0          	and    $0xfffffffffffffff0,%rdi
  4023d7:	be f4 00 00 00       	mov    $0xf4,%esi
  4023dc:	e8 0f ed ff ff       	callq  4010f0 <memset@plt>
  4023e1:	48 8b 05 d8 50 00 00 	mov    0x50d8(%rip),%rax        # 4074c0 <stdin@@GLIBC_2.2.5>
  4023e8:	48 39 05 49 51 00 00 	cmp    %rax,0x5149(%rip)        # 407538 <infile>
  4023ef:	74 29                	je     40241a <launch+0x5e>
  4023f1:	c7 05 49 51 00 00 00 	movl   $0x0,0x5149(%rip)        # 407544 <vlevel>
  4023f8:	00 00 00 
  4023fb:	b8 00 00 00 00       	mov    $0x0,%eax
  402400:	e8 d3 f9 ff ff       	callq  401dd8 <test>
  402405:	83 3d 44 51 00 00 00 	cmpl   $0x0,0x5144(%rip)        # 407550 <is_checker>
  40240c:	75 1d                	jne    40242b <launch+0x6f>
  40240e:	bf 64 48 40 00       	mov    $0x404864,%edi
  402413:	e8 68 ec ff ff       	callq  401080 <puts@plt>
  402418:	c9                   	leaveq 
  402419:	c3                   	retq   
  40241a:	bf 4c 48 40 00       	mov    $0x40484c,%edi
  40241f:	b8 00 00 00 00       	mov    $0x0,%eax
  402424:	e8 97 ec ff ff       	callq  4010c0 <printf@plt>
  402429:	eb c6                	jmp    4023f1 <launch+0x35>
  40242b:	bf 59 48 40 00       	mov    $0x404859,%edi
  402430:	e8 4b ec ff ff       	callq  401080 <puts@plt>
  402435:	b8 00 00 00 00       	mov    $0x0,%eax
  40243a:	e8 49 fb ff ff       	callq  401f88 <check_fail>

000000000040243f <stable_launch>:
  40243f:	53                   	push   %rbx
  402440:	48 89 3d e9 50 00 00 	mov    %rdi,0x50e9(%rip)        # 407530 <global_offset>
  402447:	41 b9 00 00 00 00    	mov    $0x0,%r9d
  40244d:	41 b8 00 00 00 00    	mov    $0x0,%r8d
  402453:	b9 32 01 00 00       	mov    $0x132,%ecx
  402458:	ba 07 00 00 00       	mov    $0x7,%edx
  40245d:	be 00 00 10 00       	mov    $0x100000,%esi
  402462:	bf 00 60 58 55       	mov    $0x55586000,%edi
  402467:	e8 44 ec ff ff       	callq  4010b0 <mmap@plt>
  40246c:	48 89 c3             	mov    %rax,%rbx
  40246f:	48 3d 00 60 58 55    	cmp    $0x55586000,%rax
  402475:	75 43                	jne    4024ba <stable_launch+0x7b>
  402477:	48 8d 90 f8 ff 0f 00 	lea    0xffff8(%rax),%rdx
  40247e:	48 89 15 a3 50 00 00 	mov    %rdx,0x50a3(%rip)        # 407528 <stack_top>
  402485:	48 89 e0             	mov    %rsp,%rax
  402488:	48 89 d4             	mov    %rdx,%rsp
  40248b:	48 89 c2             	mov    %rax,%rdx
  40248e:	48 89 15 8b 50 00 00 	mov    %rdx,0x508b(%rip)        # 407520 <global_save_stack>
  402495:	48 8b 3d 94 50 00 00 	mov    0x5094(%rip),%rdi        # 407530 <global_offset>
  40249c:	e8 1b ff ff ff       	callq  4023bc <launch>
  4024a1:	48 8b 05 78 50 00 00 	mov    0x5078(%rip),%rax        # 407520 <global_save_stack>
  4024a8:	48 89 c4             	mov    %rax,%rsp
  4024ab:	be 00 00 10 00       	mov    $0x100000,%esi
  4024b0:	48 89 df             	mov    %rbx,%rdi
  4024b3:	e8 f8 ec ff ff       	callq  4011b0 <munmap@plt>
  4024b8:	5b                   	pop    %rbx
  4024b9:	c3                   	retq   
  4024ba:	be 00 00 10 00       	mov    $0x100000,%esi
  4024bf:	48 89 c7             	mov    %rax,%rdi
  4024c2:	e8 e9 ec ff ff       	callq  4011b0 <munmap@plt>
  4024c7:	ba 00 60 58 55       	mov    $0x55586000,%edx
  4024cc:	be 18 4a 40 00       	mov    $0x404a18,%esi
  4024d1:	48 8b 3d 28 50 00 00 	mov    0x5028(%rip),%rdi        # 407500 <stderr@@GLIBC_2.2.5>
  4024d8:	b8 00 00 00 00       	mov    $0x0,%eax
  4024dd:	e8 6e ec ff ff       	callq  401150 <fprintf@plt>
  4024e2:	bf 01 00 00 00       	mov    $0x1,%edi
  4024e7:	e8 24 ed ff ff       	callq  401210 <exit@plt>

00000000004024ec <rio_readinitb>:
  4024ec:	89 37                	mov    %esi,(%rdi)
  4024ee:	c7 47 04 00 00 00 00 	movl   $0x0,0x4(%rdi)
  4024f5:	48 8d 47 10          	lea    0x10(%rdi),%rax
  4024f9:	48 89 47 08          	mov    %rax,0x8(%rdi)
  4024fd:	c3                   	retq   

00000000004024fe <sigalrm_handler>:
  4024fe:	48 83 ec 08          	sub    $0x8,%rsp
  402502:	ba 00 00 00 00       	mov    $0x0,%edx
  402507:	be 50 4a 40 00       	mov    $0x404a50,%esi
  40250c:	48 8b 3d ed 4f 00 00 	mov    0x4fed(%rip),%rdi        # 407500 <stderr@@GLIBC_2.2.5>
  402513:	b8 00 00 00 00       	mov    $0x0,%eax
  402518:	e8 33 ec ff ff       	callq  401150 <fprintf@plt>
  40251d:	bf 01 00 00 00       	mov    $0x1,%edi
  402522:	e8 e9 ec ff ff       	callq  401210 <exit@plt>

0000000000402527 <urlencode>:
  402527:	41 54                	push   %r12
  402529:	55                   	push   %rbp
  40252a:	53                   	push   %rbx
  40252b:	48 83 ec 10          	sub    $0x10,%rsp
  40252f:	48 89 fb             	mov    %rdi,%rbx
  402532:	48 89 f5             	mov    %rsi,%rbp
  402535:	e8 66 eb ff ff       	callq  4010a0 <strlen@plt>
  40253a:	eb 0e                	jmp    40254a <urlencode+0x23>
  40253c:	88 55 00             	mov    %dl,0x0(%rbp)
  40253f:	48 8d 6d 01          	lea    0x1(%rbp),%rbp
  402543:	48 83 c3 01          	add    $0x1,%rbx
  402547:	44 89 e0             	mov    %r12d,%eax
  40254a:	44 8d 60 ff          	lea    -0x1(%rax),%r12d
  40254e:	85 c0                	test   %eax,%eax
  402550:	0f 84 93 00 00 00    	je     4025e9 <urlencode+0xc2>
  402556:	0f b6 13             	movzbl (%rbx),%edx
  402559:	80 fa 2a             	cmp    $0x2a,%dl
  40255c:	0f 94 c0             	sete   %al
  40255f:	80 fa 2d             	cmp    $0x2d,%dl
  402562:	0f 94 c1             	sete   %cl
  402565:	08 c8                	or     %cl,%al
  402567:	75 d3                	jne    40253c <urlencode+0x15>
  402569:	80 fa 2e             	cmp    $0x2e,%dl
  40256c:	74 ce                	je     40253c <urlencode+0x15>
  40256e:	80 fa 5f             	cmp    $0x5f,%dl
  402571:	74 c9                	je     40253c <urlencode+0x15>
  402573:	8d 42 d0             	lea    -0x30(%rdx),%eax
  402576:	3c 09                	cmp    $0x9,%al
  402578:	76 c2                	jbe    40253c <urlencode+0x15>
  40257a:	8d 42 bf             	lea    -0x41(%rdx),%eax
  40257d:	3c 19                	cmp    $0x19,%al
  40257f:	76 bb                	jbe    40253c <urlencode+0x15>
  402581:	8d 42 9f             	lea    -0x61(%rdx),%eax
  402584:	3c 19                	cmp    $0x19,%al
  402586:	76 b4                	jbe    40253c <urlencode+0x15>
  402588:	80 fa 20             	cmp    $0x20,%dl
  40258b:	74 4a                	je     4025d7 <urlencode+0xb0>
  40258d:	8d 42 e0             	lea    -0x20(%rdx),%eax
  402590:	3c 5f                	cmp    $0x5f,%al
  402592:	0f 96 c0             	setbe  %al
  402595:	80 fa 09             	cmp    $0x9,%dl
  402598:	0f 94 c1             	sete   %cl
  40259b:	08 c8                	or     %cl,%al
  40259d:	74 45                	je     4025e4 <urlencode+0xbd>
  40259f:	0f b6 d2             	movzbl %dl,%edx
  4025a2:	be 15 4b 40 00       	mov    $0x404b15,%esi
  4025a7:	48 8d 7c 24 08       	lea    0x8(%rsp),%rdi
  4025ac:	b8 00 00 00 00       	mov    $0x0,%eax
  4025b1:	e8 4a ec ff ff       	callq  401200 <sprintf@plt>
  4025b6:	0f b6 44 24 08       	movzbl 0x8(%rsp),%eax
  4025bb:	88 45 00             	mov    %al,0x0(%rbp)
  4025be:	0f b6 44 24 09       	movzbl 0x9(%rsp),%eax
  4025c3:	88 45 01             	mov    %al,0x1(%rbp)
  4025c6:	0f b6 44 24 0a       	movzbl 0xa(%rsp),%eax
  4025cb:	88 45 02             	mov    %al,0x2(%rbp)
  4025ce:	48 8d 6d 03          	lea    0x3(%rbp),%rbp
  4025d2:	e9 6c ff ff ff       	jmpq   402543 <urlencode+0x1c>
  4025d7:	c6 45 00 2b          	movb   $0x2b,0x0(%rbp)
  4025db:	48 8d 6d 01          	lea    0x1(%rbp),%rbp
  4025df:	e9 5f ff ff ff       	jmpq   402543 <urlencode+0x1c>
  4025e4:	b8 ff ff ff ff       	mov    $0xffffffff,%eax
  4025e9:	48 83 c4 10          	add    $0x10,%rsp
  4025ed:	5b                   	pop    %rbx
  4025ee:	5d                   	pop    %rbp
  4025ef:	41 5c                	pop    %r12
  4025f1:	c3                   	retq   

00000000004025f2 <rio_writen>:
  4025f2:	41 55                	push   %r13
  4025f4:	41 54                	push   %r12
  4025f6:	55                   	push   %rbp
  4025f7:	53                   	push   %rbx
  4025f8:	48 83 ec 08          	sub    $0x8,%rsp
  4025fc:	41 89 fc             	mov    %edi,%r12d
  4025ff:	48 89 f5             	mov    %rsi,%rbp
  402602:	49 89 d5             	mov    %rdx,%r13
  402605:	48 89 d3             	mov    %rdx,%rbx
  402608:	eb 06                	jmp    402610 <rio_writen+0x1e>
  40260a:	48 29 c3             	sub    %rax,%rbx
  40260d:	48 01 c5             	add    %rax,%rbp
  402610:	48 85 db             	test   %rbx,%rbx
  402613:	74 24                	je     402639 <rio_writen+0x47>
  402615:	48 89 da             	mov    %rbx,%rdx
  402618:	48 89 ee             	mov    %rbp,%rsi
  40261b:	44 89 e7             	mov    %r12d,%edi
  40261e:	e8 6d ea ff ff       	callq  401090 <write@plt>
  402623:	48 85 c0             	test   %rax,%rax
  402626:	7f e2                	jg     40260a <rio_writen+0x18>
  402628:	e8 13 ea ff ff       	callq  401040 <__errno_location@plt>
  40262d:	83 38 04             	cmpl   $0x4,(%rax)
  402630:	75 15                	jne    402647 <rio_writen+0x55>
  402632:	b8 00 00 00 00       	mov    $0x0,%eax
  402637:	eb d1                	jmp    40260a <rio_writen+0x18>
  402639:	4c 89 e8             	mov    %r13,%rax
  40263c:	48 83 c4 08          	add    $0x8,%rsp
  402640:	5b                   	pop    %rbx
  402641:	5d                   	pop    %rbp
  402642:	41 5c                	pop    %r12
  402644:	41 5d                	pop    %r13
  402646:	c3                   	retq   
  402647:	48 c7 c0 ff ff ff ff 	mov    $0xffffffffffffffff,%rax
  40264e:	eb ec                	jmp    40263c <rio_writen+0x4a>

0000000000402650 <rio_read>:
  402650:	41 55                	push   %r13
  402652:	41 54                	push   %r12
  402654:	55                   	push   %rbp
  402655:	53                   	push   %rbx
  402656:	48 83 ec 08          	sub    $0x8,%rsp
  40265a:	48 89 fb             	mov    %rdi,%rbx
  40265d:	49 89 f5             	mov    %rsi,%r13
  402660:	49 89 d4             	mov    %rdx,%r12
  402663:	eb 0a                	jmp    40266f <rio_read+0x1f>
  402665:	e8 d6 e9 ff ff       	callq  401040 <__errno_location@plt>
  40266a:	83 38 04             	cmpl   $0x4,(%rax)
  40266d:	75 5a                	jne    4026c9 <rio_read+0x79>
  40266f:	8b 6b 04             	mov    0x4(%rbx),%ebp
  402672:	85 ed                	test   %ebp,%ebp
  402674:	7f 22                	jg     402698 <rio_read+0x48>
  402676:	48 8d 6b 10          	lea    0x10(%rbx),%rbp
  40267a:	ba 00 20 00 00       	mov    $0x2000,%edx
  40267f:	48 89 ee             	mov    %rbp,%rsi
  402682:	8b 3b                	mov    (%rbx),%edi
  402684:	e8 97 ea ff ff       	callq  401120 <read@plt>
  402689:	89 43 04             	mov    %eax,0x4(%rbx)
  40268c:	85 c0                	test   %eax,%eax
  40268e:	78 d5                	js     402665 <rio_read+0x15>
  402690:	74 40                	je     4026d2 <rio_read+0x82>
  402692:	48 89 6b 08          	mov    %rbp,0x8(%rbx)
  402696:	eb d7                	jmp    40266f <rio_read+0x1f>
  402698:	89 e8                	mov    %ebp,%eax
  40269a:	4c 39 e0             	cmp    %r12,%rax
  40269d:	72 03                	jb     4026a2 <rio_read+0x52>
  40269f:	44 89 e5             	mov    %r12d,%ebp
  4026a2:	4c 63 e5             	movslq %ebp,%r12
  4026a5:	48 8b 73 08          	mov    0x8(%rbx),%rsi
  4026a9:	4c 89 e2             	mov    %r12,%rdx
  4026ac:	4c 89 ef             	mov    %r13,%rdi
  4026af:	e8 bc ea ff ff       	callq  401170 <memcpy@plt>
  4026b4:	4c 01 63 08          	add    %r12,0x8(%rbx)
  4026b8:	29 6b 04             	sub    %ebp,0x4(%rbx)
  4026bb:	4c 89 e0             	mov    %r12,%rax
  4026be:	48 83 c4 08          	add    $0x8,%rsp
  4026c2:	5b                   	pop    %rbx
  4026c3:	5d                   	pop    %rbp
  4026c4:	41 5c                	pop    %r12
  4026c6:	41 5d                	pop    %r13
  4026c8:	c3                   	retq   
  4026c9:	48 c7 c0 ff ff ff ff 	mov    $0xffffffffffffffff,%rax
  4026d0:	eb ec                	jmp    4026be <rio_read+0x6e>
  4026d2:	b8 00 00 00 00       	mov    $0x0,%eax
  4026d7:	eb e5                	jmp    4026be <rio_read+0x6e>

00000000004026d9 <rio_readlineb>:
  4026d9:	41 55                	push   %r13
  4026db:	41 54                	push   %r12
  4026dd:	55                   	push   %rbp
  4026de:	53                   	push   %rbx
  4026df:	48 83 ec 18          	sub    $0x18,%rsp
  4026e3:	49 89 fd             	mov    %rdi,%r13
  4026e6:	48 89 f5             	mov    %rsi,%rbp
  4026e9:	49 89 d4             	mov    %rdx,%r12
  4026ec:	bb 01 00 00 00       	mov    $0x1,%ebx
  4026f1:	eb 18                	jmp    40270b <rio_readlineb+0x32>
  4026f3:	85 c0                	test   %eax,%eax
  4026f5:	75 55                	jne    40274c <rio_readlineb+0x73>
  4026f7:	48 83 fb 01          	cmp    $0x1,%rbx
  4026fb:	75 3d                	jne    40273a <rio_readlineb+0x61>
  4026fd:	b8 00 00 00 00       	mov    $0x0,%eax
  402702:	eb 3d                	jmp    402741 <rio_readlineb+0x68>
  402704:	48 83 c3 01          	add    $0x1,%rbx
  402708:	48 89 d5             	mov    %rdx,%rbp
  40270b:	4c 39 e3             	cmp    %r12,%rbx
  40270e:	73 2a                	jae    40273a <rio_readlineb+0x61>
  402710:	ba 01 00 00 00       	mov    $0x1,%edx
  402715:	48 8d 74 24 0f       	lea    0xf(%rsp),%rsi
  40271a:	4c 89 ef             	mov    %r13,%rdi
  40271d:	e8 2e ff ff ff       	callq  402650 <rio_read>
  402722:	83 f8 01             	cmp    $0x1,%eax
  402725:	75 cc                	jne    4026f3 <rio_readlineb+0x1a>
  402727:	48 8d 55 01          	lea    0x1(%rbp),%rdx
  40272b:	0f b6 44 24 0f       	movzbl 0xf(%rsp),%eax
  402730:	88 45 00             	mov    %al,0x0(%rbp)
  402733:	3c 0a                	cmp    $0xa,%al
  402735:	75 cd                	jne    402704 <rio_readlineb+0x2b>
  402737:	48 89 d5             	mov    %rdx,%rbp
  40273a:	c6 45 00 00          	movb   $0x0,0x0(%rbp)
  40273e:	48 89 d8             	mov    %rbx,%rax
  402741:	48 83 c4 18          	add    $0x18,%rsp
  402745:	5b                   	pop    %rbx
  402746:	5d                   	pop    %rbp
  402747:	41 5c                	pop    %r12
  402749:	41 5d                	pop    %r13
  40274b:	c3                   	retq   
  40274c:	48 c7 c0 ff ff ff ff 	mov    $0xffffffffffffffff,%rax
  402753:	eb ec                	jmp    402741 <rio_readlineb+0x68>

0000000000402755 <submitr>:
  402755:	41 57                	push   %r15
  402757:	41 56                	push   %r14
  402759:	41 55                	push   %r13
  40275b:	41 54                	push   %r12
  40275d:	55                   	push   %rbp
  40275e:	53                   	push   %rbx
  40275f:	48 81 ec 88 a0 00 00 	sub    $0xa088,%rsp
  402766:	49 89 fd             	mov    %rdi,%r13
  402769:	48 89 54 24 08       	mov    %rdx,0x8(%rsp)
  40276e:	48 89 4c 24 10       	mov    %rcx,0x10(%rsp)
  402773:	4d 89 c7             	mov    %r8,%r15
  402776:	4d 89 ce             	mov    %r9,%r14
  402779:	4c 8b a4 24 c0 a0 00 	mov    0xa0c0(%rsp),%r12
  402780:	00 
  402781:	c7 84 24 44 a0 00 00 	movl   $0x0,0xa044(%rsp)
  402788:	00 00 00 00 
  40278c:	89 f1                	mov    %esi,%ecx
  40278e:	ba 1c 4b 40 00       	mov    $0x404b1c,%edx
  402793:	be 06 00 00 00       	mov    $0x6,%esi
  402798:	48 8d bc 24 3e a0 00 	lea    0xa03e(%rsp),%rdi
  40279f:	00 
  4027a0:	b8 00 00 00 00       	mov    $0x0,%eax
  4027a5:	e8 26 e9 ff ff       	callq  4010d0 <snprintf@plt>
  4027aa:	48 c7 84 24 50 a0 00 	movq   $0x0,0xa050(%rsp)
  4027b1:	00 00 00 00 00 
  4027b6:	48 c7 84 24 58 a0 00 	movq   $0x0,0xa058(%rsp)
  4027bd:	00 00 00 00 00 
  4027c2:	48 c7 84 24 60 a0 00 	movq   $0x0,0xa060(%rsp)
  4027c9:	00 00 00 00 00 
  4027ce:	48 c7 84 24 68 a0 00 	movq   $0x0,0xa068(%rsp)
  4027d5:	00 00 00 00 00 
  4027da:	48 c7 84 24 70 a0 00 	movq   $0x0,0xa070(%rsp)
  4027e1:	00 00 00 00 00 
  4027e6:	48 c7 84 24 78 a0 00 	movq   $0x0,0xa078(%rsp)
  4027ed:	00 00 00 00 00 
  4027f2:	c7 84 24 58 a0 00 00 	movl   $0x1,0xa058(%rsp)
  4027f9:	01 00 00 00 
  4027fd:	48 8d 8c 24 48 a0 00 	lea    0xa048(%rsp),%rcx
  402804:	00 
  402805:	48 8d 94 24 50 a0 00 	lea    0xa050(%rsp),%rdx
  40280c:	00 
  40280d:	48 8d b4 24 3e a0 00 	lea    0xa03e(%rsp),%rsi
  402814:	00 
  402815:	4c 89 ef             	mov    %r13,%rdi
  402818:	e8 13 ea ff ff       	callq  401230 <getaddrinfo@plt>
  40281d:	89 84 24 44 a0 00 00 	mov    %eax,0xa044(%rsp)
  402824:	85 c0                	test   %eax,%eax
  402826:	75 0a                	jne    402832 <submitr+0xdd>
  402828:	48 8b 9c 24 48 a0 00 	mov    0xa048(%rsp),%rbx
  40282f:	00 
  402830:	eb 36                	jmp    402868 <submitr+0x113>
  402832:	89 c7                	mov    %eax,%edi
  402834:	e8 a7 e8 ff ff       	callq  4010e0 <gai_strerror@plt>
  402839:	48 89 c1             	mov    %rax,%rcx
  40283c:	ba 78 4a 40 00       	mov    $0x404a78,%edx
  402841:	be 00 20 00 00       	mov    $0x2000,%esi
  402846:	4c 89 e7             	mov    %r12,%rdi
  402849:	b8 00 00 00 00       	mov    $0x0,%eax
  40284e:	e8 7d e8 ff ff       	callq  4010d0 <snprintf@plt>
  402853:	b8 ff ff ff ff       	mov    $0xffffffff,%eax
  402858:	e9 35 02 00 00       	jmpq   402a92 <submitr+0x33d>
  40285d:	89 ef                	mov    %ebp,%edi
  40285f:	e8 ac e8 ff ff       	callq  401110 <close@plt>
  402864:	48 8b 5b 28          	mov    0x28(%rbx),%rbx
  402868:	48 85 db             	test   %rbx,%rbx
  40286b:	74 26                	je     402893 <submitr+0x13e>
  40286d:	8b 53 0c             	mov    0xc(%rbx),%edx
  402870:	8b 73 08             	mov    0x8(%rbx),%esi
  402873:	8b 7b 04             	mov    0x4(%rbx),%edi
  402876:	e8 e5 e9 ff ff       	callq  401260 <socket@plt>
  40287b:	89 c5                	mov    %eax,%ebp
  40287d:	85 c0                	test   %eax,%eax
  40287f:	78 e3                	js     402864 <submitr+0x10f>
  402881:	48 8b 73 18          	mov    0x18(%rbx),%rsi
  402885:	8b 53 10             	mov    0x10(%rbx),%edx
  402888:	89 c7                	mov    %eax,%edi
  40288a:	e8 91 e9 ff ff       	callq  401220 <connect@plt>
  40288f:	85 c0                	test   %eax,%eax
  402891:	75 ca                	jne    40285d <submitr+0x108>
  402893:	48 85 db             	test   %rbx,%rbx
  402896:	0f 84 08 02 00 00    	je     402aa4 <submitr+0x34f>
  40289c:	48 8b bc 24 48 a0 00 	mov    0xa048(%rsp),%rdi
  4028a3:	00 
  4028a4:	e8 a7 e9 ff ff       	callq  401250 <freeaddrinfo@plt>
  4028a9:	4c 89 f7             	mov    %r14,%rdi
  4028ac:	e8 ef e7 ff ff       	callq  4010a0 <strlen@plt>
  4028b1:	48 89 c3             	mov    %rax,%rbx
  4028b4:	48 8b 7c 24 08       	mov    0x8(%rsp),%rdi
  4028b9:	e8 e2 e7 ff ff       	callq  4010a0 <strlen@plt>
  4028be:	48 89 44 24 18       	mov    %rax,0x18(%rsp)
  4028c3:	48 8b 7c 24 10       	mov    0x10(%rsp),%rdi
  4028c8:	e8 d3 e7 ff ff       	callq  4010a0 <strlen@plt>
  4028cd:	48 03 44 24 18       	add    0x18(%rsp),%rax
  4028d2:	48 89 44 24 18       	mov    %rax,0x18(%rsp)
  4028d7:	4c 89 ff             	mov    %r15,%rdi
  4028da:	e8 c1 e7 ff ff       	callq  4010a0 <strlen@plt>
  4028df:	48 03 44 24 18       	add    0x18(%rsp),%rax
  4028e4:	48 8d 14 5b          	lea    (%rbx,%rbx,2),%rdx
  4028e8:	48 8d 84 10 80 00 00 	lea    0x80(%rax,%rdx,1),%rax
  4028ef:	00 
  4028f0:	48 3d 00 20 00 00    	cmp    $0x2000,%rax
  4028f6:	0f 87 0e 02 00 00    	ja     402b0a <submitr+0x3b5>
  4028fc:	48 8d b4 24 30 60 00 	lea    0x6030(%rsp),%rsi
  402903:	00 
  402904:	b9 00 04 00 00       	mov    $0x400,%ecx
  402909:	b8 00 00 00 00       	mov    $0x0,%eax
  40290e:	48 89 f7             	mov    %rsi,%rdi
  402911:	f3 48 ab             	rep stos %rax,%es:(%rdi)
  402914:	4c 89 f7             	mov    %r14,%rdi
  402917:	e8 0b fc ff ff       	callq  402527 <urlencode>
  40291c:	85 c0                	test   %eax,%eax
  40291e:	0f 88 5f 02 00 00    	js     402b83 <submitr+0x42e>
  402924:	41 55                	push   %r13
  402926:	48 8d 84 24 38 60 00 	lea    0x6038(%rsp),%rax
  40292d:	00 
  40292e:	50                   	push   %rax
  40292f:	4d 89 f9             	mov    %r15,%r9
  402932:	4c 8b 44 24 18       	mov    0x18(%rsp),%r8
  402937:	48 8b 4c 24 20       	mov    0x20(%rsp),%rcx
  40293c:	ba a0 4a 40 00       	mov    $0x404aa0,%edx
  402941:	be 00 20 00 00       	mov    $0x2000,%esi
  402946:	48 8d bc 24 40 80 00 	lea    0x8040(%rsp),%rdi
  40294d:	00 
  40294e:	b8 00 00 00 00       	mov    $0x0,%eax
  402953:	e8 78 e7 ff ff       	callq  4010d0 <snprintf@plt>
  402958:	48 8d bc 24 40 80 00 	lea    0x8040(%rsp),%rdi
  40295f:	00 
  402960:	e8 3b e7 ff ff       	callq  4010a0 <strlen@plt>
  402965:	48 89 c2             	mov    %rax,%rdx
  402968:	48 8d b4 24 40 80 00 	lea    0x8040(%rsp),%rsi
  40296f:	00 
  402970:	89 ef                	mov    %ebp,%edi
  402972:	e8 7b fc ff ff       	callq  4025f2 <rio_writen>
  402977:	48 83 c4 10          	add    $0x10,%rsp
  40297b:	48 85 c0             	test   %rax,%rax
  40297e:	0f 88 95 02 00 00    	js     402c19 <submitr+0x4c4>
  402984:	89 ee                	mov    %ebp,%esi
  402986:	48 8d 7c 24 20       	lea    0x20(%rsp),%rdi
  40298b:	e8 5c fb ff ff       	callq  4024ec <rio_readinitb>
  402990:	ba 00 20 00 00       	mov    $0x2000,%edx
  402995:	48 8d b4 24 30 80 00 	lea    0x8030(%rsp),%rsi
  40299c:	00 
  40299d:	48 8d 7c 24 20       	lea    0x20(%rsp),%rdi
  4029a2:	e8 32 fd ff ff       	callq  4026d9 <rio_readlineb>
  4029a7:	48 85 c0             	test   %rax,%rax
  4029aa:	0f 8e e1 02 00 00    	jle    402c91 <submitr+0x53c>
  4029b0:	4c 8d 84 24 30 20 00 	lea    0x2030(%rsp),%r8
  4029b7:	00 
  4029b8:	48 8d 8c 24 44 a0 00 	lea    0xa044(%rsp),%rcx
  4029bf:	00 
  4029c0:	48 8d 94 24 30 40 00 	lea    0x4030(%rsp),%rdx
  4029c7:	00 
  4029c8:	be 1f 4b 40 00       	mov    $0x404b1f,%esi
  4029cd:	48 8d bc 24 30 80 00 	lea    0x8030(%rsp),%rdi
  4029d4:	00 
  4029d5:	b8 00 00 00 00       	mov    $0x0,%eax
  4029da:	e8 c1 e7 ff ff       	callq  4011a0 <__isoc99_sscanf@plt>
  4029df:	be 36 4b 40 00       	mov    $0x404b36,%esi
  4029e4:	48 8d bc 24 30 80 00 	lea    0x8030(%rsp),%rdi
  4029eb:	00 
  4029ec:	e8 3f e7 ff ff       	callq  401130 <strcmp@plt>
  4029f1:	85 c0                	test   %eax,%eax
  4029f3:	0f 84 20 03 00 00    	je     402d19 <submitr+0x5c4>
  4029f9:	ba 00 20 00 00       	mov    $0x2000,%edx
  4029fe:	48 8d b4 24 30 80 00 	lea    0x8030(%rsp),%rsi
  402a05:	00 
  402a06:	48 8d 7c 24 20       	lea    0x20(%rsp),%rdi
  402a0b:	e8 c9 fc ff ff       	callq  4026d9 <rio_readlineb>
  402a10:	48 85 c0             	test   %rax,%rax
  402a13:	7f ca                	jg     4029df <submitr+0x28a>
  402a15:	48 b8 45 72 72 6f 72 	movabs $0x43203a726f727245,%rax
  402a1c:	3a 20 43 
  402a1f:	48 ba 6c 69 65 6e 74 	movabs $0x6e7520746e65696c,%rdx
  402a26:	20 75 6e 
  402a29:	49 89 04 24          	mov    %rax,(%r12)
  402a2d:	49 89 54 24 08       	mov    %rdx,0x8(%r12)
  402a32:	48 b8 61 62 6c 65 20 	movabs $0x206f7420656c6261,%rax
  402a39:	74 6f 20 
  402a3c:	48 ba 72 65 61 64 20 	movabs $0x6165682064616572,%rdx
  402a43:	68 65 61 
  402a46:	49 89 44 24 10       	mov    %rax,0x10(%r12)
  402a4b:	49 89 54 24 18       	mov    %rdx,0x18(%r12)
  402a50:	48 b8 64 65 72 73 20 	movabs $0x6f72662073726564,%rax
  402a57:	66 72 6f 
  402a5a:	48 ba 6d 20 74 68 65 	movabs $0x657220656874206d,%rdx
  402a61:	20 72 65 
  402a64:	49 89 44 24 20       	mov    %rax,0x20(%r12)
  402a69:	49 89 54 24 28       	mov    %rdx,0x28(%r12)
  402a6e:	48 b8 73 75 6c 74 20 	movabs $0x72657320746c7573,%rax
  402a75:	73 65 72 
  402a78:	49 89 44 24 30       	mov    %rax,0x30(%r12)
  402a7d:	41 c7 44 24 38 76 65 	movl   $0x726576,0x38(%r12)
  402a84:	72 00 
  402a86:	89 ef                	mov    %ebp,%edi
  402a88:	e8 83 e6 ff ff       	callq  401110 <close@plt>
  402a8d:	b8 ff ff ff ff       	mov    $0xffffffff,%eax
  402a92:	48 81 c4 88 a0 00 00 	add    $0xa088,%rsp
  402a99:	5b                   	pop    %rbx
  402a9a:	5d                   	pop    %rbp
  402a9b:	41 5c                	pop    %r12
  402a9d:	41 5d                	pop    %r13
  402a9f:	41 5e                	pop    %r14
  402aa1:	41 5f                	pop    %r15
  402aa3:	c3                   	retq   
  402aa4:	48 b8 45 72 72 6f 72 	movabs $0x55203a726f727245,%rax
  402aab:	3a 20 55 
  402aae:	48 ba 6e 61 62 6c 65 	movabs $0x6f7420656c62616e,%rdx
  402ab5:	20 74 6f 
  402ab8:	49 89 04 24          	mov    %rax,(%r12)
  402abc:	49 89 54 24 08       	mov    %rdx,0x8(%r12)
  402ac1:	48 b8 20 63 6f 6e 6e 	movabs $0x7463656e6e6f6320,%rax
  402ac8:	65 63 74 
  402acb:	48 ba 20 74 6f 20 74 	movabs $0x20656874206f7420,%rdx
  402ad2:	68 65 20 
  402ad5:	49 89 44 24 10       	mov    %rax,0x10(%r12)
  402ada:	49 89 54 24 18       	mov    %rdx,0x18(%r12)
  402adf:	41 c7 44 24 20 73 65 	movl   $0x76726573,0x20(%r12)
  402ae6:	72 76 
  402ae8:	66 41 c7 44 24 24 65 	movw   $0x7265,0x24(%r12)
  402aef:	72 
  402af0:	41 c6 44 24 26 00    	movb   $0x0,0x26(%r12)
  402af6:	48 8b bc 24 48 a0 00 	mov    0xa048(%rsp),%rdi
  402afd:	00 
  402afe:	e8 4d e7 ff ff       	callq  401250 <freeaddrinfo@plt>
  402b03:	b8 ff ff ff ff       	mov    $0xffffffff,%eax
  402b08:	eb 88                	jmp    402a92 <submitr+0x33d>
  402b0a:	48 b8 45 72 72 6f 72 	movabs $0x52203a726f727245,%rax
  402b11:	3a 20 52 
  402b14:	48 ba 65 73 75 6c 74 	movabs $0x747320746c757365,%rdx
  402b1b:	20 73 74 
  402b1e:	49 89 04 24          	mov    %rax,(%r12)
  402b22:	49 89 54 24 08       	mov    %rdx,0x8(%r12)
  402b27:	48 b8 72 69 6e 67 20 	movabs $0x6f6f7420676e6972,%rax
  402b2e:	74 6f 6f 
  402b31:	48 ba 20 6c 61 72 67 	movabs $0x202e656772616c20,%rdx
  402b38:	65 2e 20 
  402b3b:	49 89 44 24 10       	mov    %rax,0x10(%r12)
  402b40:	49 89 54 24 18       	mov    %rdx,0x18(%r12)
  402b45:	48 b8 49 6e 63 72 65 	movabs $0x6573616572636e49,%rax
  402b4c:	61 73 65 
  402b4f:	48 ba 20 53 55 42 4d 	movabs $0x5254494d42555320,%rdx
  402b56:	49 54 52 
  402b59:	49 89 44 24 20       	mov    %rax,0x20(%r12)
  402b5e:	49 89 54 24 28       	mov    %rdx,0x28(%r12)
  402b63:	48 b8 5f 4d 41 58 42 	movabs $0x46554258414d5f,%rax
  402b6a:	55 46 00 
  402b6d:	49 89 44 24 30       	mov    %rax,0x30(%r12)
  402b72:	89 ef                	mov    %ebp,%edi
  402b74:	e8 97 e5 ff ff       	callq  401110 <close@plt>
  402b79:	b8 ff ff ff ff       	mov    $0xffffffff,%eax
  402b7e:	e9 0f ff ff ff       	jmpq   402a92 <submitr+0x33d>
  402b83:	48 b8 45 72 72 6f 72 	movabs $0x52203a726f727245,%rax
  402b8a:	3a 20 52 
  402b8d:	48 ba 65 73 75 6c 74 	movabs $0x747320746c757365,%rdx
  402b94:	20 73 74 
  402b97:	49 89 04 24          	mov    %rax,(%r12)
  402b9b:	49 89 54 24 08       	mov    %rdx,0x8(%r12)
  402ba0:	48 b8 72 69 6e 67 20 	movabs $0x6e6f6320676e6972,%rax
  402ba7:	63 6f 6e 
  402baa:	48 ba 74 61 69 6e 73 	movabs $0x6e6120736e696174,%rdx
  402bb1:	20 61 6e 
  402bb4:	49 89 44 24 10       	mov    %rax,0x10(%r12)
  402bb9:	49 89 54 24 18       	mov    %rdx,0x18(%r12)
  402bbe:	48 b8 20 69 6c 6c 65 	movabs $0x6c6167656c6c6920,%rax
  402bc5:	67 61 6c 
  402bc8:	48 ba 20 6f 72 20 75 	movabs $0x72706e7520726f20,%rdx
  402bcf:	6e 70 72 
  402bd2:	49 89 44 24 20       	mov    %rax,0x20(%r12)
  402bd7:	49 89 54 24 28       	mov    %rdx,0x28(%r12)
  402bdc:	48 b8 69 6e 74 61 62 	movabs $0x20656c6261746e69,%rax
  402be3:	6c 65 20 
  402be6:	48 ba 63 68 61 72 61 	movabs $0x6574636172616863,%rdx
  402bed:	63 74 65 
  402bf0:	49 89 44 24 30       	mov    %rax,0x30(%r12)
  402bf5:	49 89 54 24 38       	mov    %rdx,0x38(%r12)
  402bfa:	66 41 c7 44 24 40 72 	movw   $0x2e72,0x40(%r12)
  402c01:	2e 
  402c02:	41 c6 44 24 42 00    	movb   $0x0,0x42(%r12)
  402c08:	89 ef                	mov    %ebp,%edi
  402c0a:	e8 01 e5 ff ff       	callq  401110 <close@plt>
  402c0f:	b8 ff ff ff ff       	mov    $0xffffffff,%eax
  402c14:	e9 79 fe ff ff       	jmpq   402a92 <submitr+0x33d>
  402c19:	48 b8 45 72 72 6f 72 	movabs $0x43203a726f727245,%rax
  402c20:	3a 20 43 
  402c23:	48 ba 6c 69 65 6e 74 	movabs $0x6e7520746e65696c,%rdx
  402c2a:	20 75 6e 
  402c2d:	49 89 04 24          	mov    %rax,(%r12)
  402c31:	49 89 54 24 08       	mov    %rdx,0x8(%r12)
  402c36:	48 b8 61 62 6c 65 20 	movabs $0x206f7420656c6261,%rax
  402c3d:	74 6f 20 
  402c40:	48 ba 77 72 69 74 65 	movabs $0x6f74206574697277,%rdx
  402c47:	20 74 6f 
  402c4a:	49 89 44 24 10       	mov    %rax,0x10(%r12)
  402c4f:	49 89 54 24 18       	mov    %rdx,0x18(%r12)
  402c54:	48 b8 20 74 68 65 20 	movabs $0x7365722065687420,%rax
  402c5b:	72 65 73 
  402c5e:	48 ba 75 6c 74 20 73 	movabs $0x7672657320746c75,%rdx
  402c65:	65 72 76 
  402c68:	49 89 44 24 20       	mov    %rax,0x20(%r12)
  402c6d:	49 89 54 24 28       	mov    %rdx,0x28(%r12)
  402c72:	66 41 c7 44 24 30 65 	movw   $0x7265,0x30(%r12)
  402c79:	72 
  402c7a:	41 c6 44 24 32 00    	movb   $0x0,0x32(%r12)
  402c80:	89 ef                	mov    %ebp,%edi
  402c82:	e8 89 e4 ff ff       	callq  401110 <close@plt>
  402c87:	b8 ff ff ff ff       	mov    $0xffffffff,%eax
  402c8c:	e9 01 fe ff ff       	jmpq   402a92 <submitr+0x33d>
  402c91:	48 b8 45 72 72 6f 72 	movabs $0x43203a726f727245,%rax
  402c98:	3a 20 43 
  402c9b:	48 ba 6c 69 65 6e 74 	movabs $0x6e7520746e65696c,%rdx
  402ca2:	20 75 6e 
  402ca5:	49 89 04 24          	mov    %rax,(%r12)
  402ca9:	49 89 54 24 08       	mov    %rdx,0x8(%r12)
  402cae:	48 b8 61 62 6c 65 20 	movabs $0x206f7420656c6261,%rax
  402cb5:	74 6f 20 
  402cb8:	48 ba 72 65 61 64 20 	movabs $0x7269662064616572,%rdx
  402cbf:	66 69 72 
  402cc2:	49 89 44 24 10       	mov    %rax,0x10(%r12)
  402cc7:	49 89 54 24 18       	mov    %rdx,0x18(%r12)
  402ccc:	48 b8 73 74 20 68 65 	movabs $0x6564616568207473,%rax
  402cd3:	61 64 65 
  402cd6:	48 ba 72 20 66 72 6f 	movabs $0x72206d6f72662072,%rdx
  402cdd:	6d 20 72 
  402ce0:	49 89 44 24 20       	mov    %rax,0x20(%r12)
  402ce5:	49 89 54 24 28       	mov    %rdx,0x28(%r12)
  402cea:	48 b8 65 73 75 6c 74 	movabs $0x657320746c757365,%rax
  402cf1:	20 73 65 
  402cf4:	49 89 44 24 30       	mov    %rax,0x30(%r12)
  402cf9:	41 c7 44 24 38 72 76 	movl   $0x72657672,0x38(%r12)
  402d00:	65 72 
  402d02:	41 c6 44 24 3c 00    	movb   $0x0,0x3c(%r12)
  402d08:	89 ef                	mov    %ebp,%edi
  402d0a:	e8 01 e4 ff ff       	callq  401110 <close@plt>
  402d0f:	b8 ff ff ff ff       	mov    $0xffffffff,%eax
  402d14:	e9 79 fd ff ff       	jmpq   402a92 <submitr+0x33d>
  402d19:	ba 00 20 00 00       	mov    $0x2000,%edx
  402d1e:	48 8d b4 24 30 80 00 	lea    0x8030(%rsp),%rsi
  402d25:	00 
  402d26:	48 8d 7c 24 20       	lea    0x20(%rsp),%rdi
  402d2b:	e8 a9 f9 ff ff       	callq  4026d9 <rio_readlineb>
  402d30:	48 85 c0             	test   %rax,%rax
  402d33:	7e 73                	jle    402da8 <submitr+0x653>
  402d35:	8b 94 24 44 a0 00 00 	mov    0xa044(%rsp),%edx
  402d3c:	81 fa c8 00 00 00    	cmp    $0xc8,%edx
  402d42:	0f 85 f0 00 00 00    	jne    402e38 <submitr+0x6e3>
  402d48:	48 8d b4 24 30 80 00 	lea    0x8030(%rsp),%rsi
  402d4f:	00 
  402d50:	4c 89 e7             	mov    %r12,%rdi
  402d53:	e8 18 e3 ff ff       	callq  401070 <strcpy@plt>
  402d58:	89 ef                	mov    %ebp,%edi
  402d5a:	e8 b1 e3 ff ff       	callq  401110 <close@plt>
  402d5f:	be 30 4b 40 00       	mov    $0x404b30,%esi
  402d64:	4c 89 e7             	mov    %r12,%rdi
  402d67:	e8 c4 e3 ff ff       	callq  401130 <strcmp@plt>
  402d6c:	85 c0                	test   %eax,%eax
  402d6e:	0f 84 1e fd ff ff    	je     402a92 <submitr+0x33d>
  402d74:	be 34 4b 40 00       	mov    $0x404b34,%esi
  402d79:	4c 89 e7             	mov    %r12,%rdi
  402d7c:	e8 af e3 ff ff       	callq  401130 <strcmp@plt>
  402d81:	85 c0                	test   %eax,%eax
  402d83:	0f 84 09 fd ff ff    	je     402a92 <submitr+0x33d>
  402d89:	be 39 4b 40 00       	mov    $0x404b39,%esi
  402d8e:	4c 89 e7             	mov    %r12,%rdi
  402d91:	e8 9a e3 ff ff       	callq  401130 <strcmp@plt>
  402d96:	85 c0                	test   %eax,%eax
  402d98:	0f 84 f4 fc ff ff    	je     402a92 <submitr+0x33d>
  402d9e:	b8 ff ff ff ff       	mov    $0xffffffff,%eax
  402da3:	e9 ea fc ff ff       	jmpq   402a92 <submitr+0x33d>
  402da8:	48 b8 45 72 72 6f 72 	movabs $0x43203a726f727245,%rax
  402daf:	3a 20 43 
  402db2:	48 ba 6c 69 65 6e 74 	movabs $0x6e7520746e65696c,%rdx
  402db9:	20 75 6e 
  402dbc:	49 89 04 24          	mov    %rax,(%r12)
  402dc0:	49 89 54 24 08       	mov    %rdx,0x8(%r12)
  402dc5:	48 b8 61 62 6c 65 20 	movabs $0x206f7420656c6261,%rax
  402dcc:	74 6f 20 
  402dcf:	48 ba 72 65 61 64 20 	movabs $0x6174732064616572,%rdx
  402dd6:	73 74 61 
  402dd9:	49 89 44 24 10       	mov    %rax,0x10(%r12)
  402dde:	49 89 54 24 18       	mov    %rdx,0x18(%r12)
  402de3:	48 b8 74 75 73 20 6d 	movabs $0x7373656d20737574,%rax
  402dea:	65 73 73 
  402ded:	48 ba 61 67 65 20 66 	movabs $0x6d6f726620656761,%rdx
  402df4:	72 6f 6d 
  402df7:	49 89 44 24 20       	mov    %rax,0x20(%r12)
  402dfc:	49 89 54 24 28       	mov    %rdx,0x28(%r12)
  402e01:	48 b8 20 72 65 73 75 	movabs $0x20746c7573657220,%rax
  402e08:	6c 74 20 
  402e0b:	49 89 44 24 30       	mov    %rax,0x30(%r12)
  402e10:	41 c7 44 24 38 73 65 	movl   $0x76726573,0x38(%r12)
  402e17:	72 76 
  402e19:	66 41 c7 44 24 3c 65 	movw   $0x7265,0x3c(%r12)
  402e20:	72 
  402e21:	41 c6 44 24 3e 00    	movb   $0x0,0x3e(%r12)
  402e27:	89 ef                	mov    %ebp,%edi
  402e29:	e8 e2 e2 ff ff       	callq  401110 <close@plt>
  402e2e:	b8 ff ff ff ff       	mov    $0xffffffff,%eax
  402e33:	e9 5a fc ff ff       	jmpq   402a92 <submitr+0x33d>
  402e38:	48 8d 8c 24 30 20 00 	lea    0x2030(%rsp),%rcx
  402e3f:	00 
  402e40:	be e8 4a 40 00       	mov    $0x404ae8,%esi
  402e45:	4c 89 e7             	mov    %r12,%rdi
  402e48:	b8 00 00 00 00       	mov    $0x0,%eax
  402e4d:	e8 ae e3 ff ff       	callq  401200 <sprintf@plt>
  402e52:	89 ef                	mov    %ebp,%edi
  402e54:	e8 b7 e2 ff ff       	callq  401110 <close@plt>
  402e59:	b8 ff ff ff ff       	mov    $0xffffffff,%eax
  402e5e:	e9 2f fc ff ff       	jmpq   402a92 <submitr+0x33d>

0000000000402e63 <init_timeout>:
  402e63:	85 ff                	test   %edi,%edi
  402e65:	74 24                	je     402e8b <init_timeout+0x28>
  402e67:	53                   	push   %rbx
  402e68:	89 fb                	mov    %edi,%ebx
  402e6a:	78 18                	js     402e84 <init_timeout+0x21>
  402e6c:	be fe 24 40 00       	mov    $0x4024fe,%esi
  402e71:	bf 0e 00 00 00       	mov    $0xe,%edi
  402e76:	e8 c5 e2 ff ff       	callq  401140 <signal@plt>
  402e7b:	89 df                	mov    %ebx,%edi
  402e7d:	e8 7e e2 ff ff       	callq  401100 <alarm@plt>
  402e82:	5b                   	pop    %rbx
  402e83:	c3                   	retq   
  402e84:	bb 00 00 00 00       	mov    $0x0,%ebx
  402e89:	eb e1                	jmp    402e6c <init_timeout+0x9>
  402e8b:	c3                   	retq   

0000000000402e8c <init_driver>:
  402e8c:	41 55                	push   %r13
  402e8e:	41 54                	push   %r12
  402e90:	55                   	push   %rbp
  402e91:	53                   	push   %rbx
  402e92:	48 83 ec 48          	sub    $0x48,%rsp
  402e96:	49 89 fd             	mov    %rdi,%r13
  402e99:	be 01 00 00 00       	mov    $0x1,%esi
  402e9e:	bf 0d 00 00 00       	mov    $0xd,%edi
  402ea3:	e8 98 e2 ff ff       	callq  401140 <signal@plt>
  402ea8:	be 01 00 00 00       	mov    $0x1,%esi
  402ead:	bf 1d 00 00 00       	mov    $0x1d,%edi
  402eb2:	e8 89 e2 ff ff       	callq  401140 <signal@plt>
  402eb7:	b9 26 47 00 00       	mov    $0x4726,%ecx
  402ebc:	ba 1c 4b 40 00       	mov    $0x404b1c,%edx
  402ec1:	be 06 00 00 00       	mov    $0x6,%esi
  402ec6:	48 8d 7c 24 02       	lea    0x2(%rsp),%rdi
  402ecb:	b8 00 00 00 00       	mov    $0x0,%eax
  402ed0:	e8 fb e1 ff ff       	callq  4010d0 <snprintf@plt>
  402ed5:	48 c7 44 24 10 00 00 	movq   $0x0,0x10(%rsp)
  402edc:	00 00 
  402ede:	48 c7 44 24 18 00 00 	movq   $0x0,0x18(%rsp)
  402ee5:	00 00 
  402ee7:	48 c7 44 24 20 00 00 	movq   $0x0,0x20(%rsp)
  402eee:	00 00 
  402ef0:	48 c7 44 24 28 00 00 	movq   $0x0,0x28(%rsp)
  402ef7:	00 00 
  402ef9:	48 c7 44 24 30 00 00 	movq   $0x0,0x30(%rsp)
  402f00:	00 00 
  402f02:	48 c7 44 24 38 00 00 	movq   $0x0,0x38(%rsp)
  402f09:	00 00 
  402f0b:	c7 44 24 18 01 00 00 	movl   $0x1,0x18(%rsp)
  402f12:	00 
  402f13:	48 8d 4c 24 08       	lea    0x8(%rsp),%rcx
  402f18:	48 8d 54 24 10       	lea    0x10(%rsp),%rdx
  402f1d:	48 8d 74 24 02       	lea    0x2(%rsp),%rsi
  402f22:	bf d5 43 40 00       	mov    $0x4043d5,%edi
  402f27:	e8 04 e3 ff ff       	callq  401230 <getaddrinfo@plt>
  402f2c:	41 89 c4             	mov    %eax,%r12d
  402f2f:	85 c0                	test   %eax,%eax
  402f31:	75 07                	jne    402f3a <init_driver+0xae>
  402f33:	48 8b 5c 24 08       	mov    0x8(%rsp),%rbx
  402f38:	eb 34                	jmp    402f6e <init_driver+0xe2>
  402f3a:	89 c7                	mov    %eax,%edi
  402f3c:	e8 9f e1 ff ff       	callq  4010e0 <gai_strerror@plt>
  402f41:	48 89 c1             	mov    %rax,%rcx
  402f44:	ba 78 4a 40 00       	mov    $0x404a78,%edx
  402f49:	be 00 20 00 00       	mov    $0x2000,%esi
  402f4e:	4c 89 ef             	mov    %r13,%rdi
  402f51:	b8 00 00 00 00       	mov    $0x0,%eax
  402f56:	e8 75 e1 ff ff       	callq  4010d0 <snprintf@plt>
  402f5b:	41 bc ff ff ff ff    	mov    $0xffffffff,%r12d
  402f61:	eb 58                	jmp    402fbb <init_driver+0x12f>
  402f63:	89 ef                	mov    %ebp,%edi
  402f65:	e8 a6 e1 ff ff       	callq  401110 <close@plt>
  402f6a:	48 8b 5b 28          	mov    0x28(%rbx),%rbx
  402f6e:	48 85 db             	test   %rbx,%rbx
  402f71:	74 26                	je     402f99 <init_driver+0x10d>
  402f73:	8b 53 0c             	mov    0xc(%rbx),%edx
  402f76:	8b 73 08             	mov    0x8(%rbx),%esi
  402f79:	8b 7b 04             	mov    0x4(%rbx),%edi
  402f7c:	e8 df e2 ff ff       	callq  401260 <socket@plt>
  402f81:	89 c5                	mov    %eax,%ebp
  402f83:	85 c0                	test   %eax,%eax
  402f85:	78 e3                	js     402f6a <init_driver+0xde>
  402f87:	48 8b 73 18          	mov    0x18(%rbx),%rsi
  402f8b:	8b 53 10             	mov    0x10(%rbx),%edx
  402f8e:	89 c7                	mov    %eax,%edi
  402f90:	e8 8b e2 ff ff       	callq  401220 <connect@plt>
  402f95:	85 c0                	test   %eax,%eax
  402f97:	75 ca                	jne    402f63 <init_driver+0xd7>
  402f99:	48 85 db             	test   %rbx,%rbx
  402f9c:	74 2b                	je     402fc9 <init_driver+0x13d>
  402f9e:	48 8b 7c 24 08       	mov    0x8(%rsp),%rdi
  402fa3:	e8 a8 e2 ff ff       	callq  401250 <freeaddrinfo@plt>
  402fa8:	89 ef                	mov    %ebp,%edi
  402faa:	e8 61 e1 ff ff       	callq  401110 <close@plt>
  402faf:	66 41 c7 45 00 4f 4b 	movw   $0x4b4f,0x0(%r13)
  402fb6:	41 c6 45 02 00       	movb   $0x0,0x2(%r13)
  402fbb:	44 89 e0             	mov    %r12d,%eax
  402fbe:	48 83 c4 48          	add    $0x48,%rsp
  402fc2:	5b                   	pop    %rbx
  402fc3:	5d                   	pop    %rbp
  402fc4:	41 5c                	pop    %r12
  402fc6:	41 5d                	pop    %r13
  402fc8:	c3                   	retq   
  402fc9:	48 b8 45 72 72 6f 72 	movabs $0x55203a726f727245,%rax
  402fd0:	3a 20 55 
  402fd3:	48 ba 6e 61 62 6c 65 	movabs $0x6f7420656c62616e,%rdx
  402fda:	20 74 6f 
  402fdd:	49 89 45 00          	mov    %rax,0x0(%r13)
  402fe1:	49 89 55 08          	mov    %rdx,0x8(%r13)
  402fe5:	48 b8 20 63 6f 6e 6e 	movabs $0x7463656e6e6f6320,%rax
  402fec:	65 63 74 
  402fef:	48 ba 20 74 6f 20 73 	movabs $0x76726573206f7420,%rdx
  402ff6:	65 72 76 
  402ff9:	49 89 45 10          	mov    %rax,0x10(%r13)
  402ffd:	49 89 55 18          	mov    %rdx,0x18(%r13)
  403001:	66 41 c7 45 20 65 72 	movw   $0x7265,0x20(%r13)
  403008:	41 c6 45 22 00       	movb   $0x0,0x22(%r13)
  40300d:	48 8b 7c 24 08       	mov    0x8(%rsp),%rdi
  403012:	e8 39 e2 ff ff       	callq  401250 <freeaddrinfo@plt>
  403017:	41 bc ff ff ff ff    	mov    $0xffffffff,%r12d
  40301d:	eb 9c                	jmp    402fbb <init_driver+0x12f>

000000000040301f <driver_post>:
  40301f:	53                   	push   %rbx
  403020:	4c 89 cb             	mov    %r9,%rbx
  403023:	45 85 c0             	test   %r8d,%r8d
  403026:	75 18                	jne    403040 <driver_post+0x21>
  403028:	48 85 ff             	test   %rdi,%rdi
  40302b:	74 05                	je     403032 <driver_post+0x13>
  40302d:	80 3f 00             	cmpb   $0x0,(%rdi)
  403030:	75 30                	jne    403062 <driver_post+0x43>
  403032:	66 c7 03 4f 4b       	movw   $0x4b4f,(%rbx)
  403037:	c6 43 02 00          	movb   $0x0,0x2(%rbx)
  40303b:	44 89 c0             	mov    %r8d,%eax
  40303e:	5b                   	pop    %rbx
  40303f:	c3                   	retq   
  403040:	48 89 ce             	mov    %rcx,%rsi
  403043:	bf 3c 4b 40 00       	mov    $0x404b3c,%edi
  403048:	b8 00 00 00 00       	mov    $0x0,%eax
  40304d:	e8 6e e0 ff ff       	callq  4010c0 <printf@plt>
  403052:	66 c7 03 4f 4b       	movw   $0x4b4f,(%rbx)
  403057:	c6 43 02 00          	movb   $0x0,0x2(%rbx)
  40305b:	b8 00 00 00 00       	mov    $0x0,%eax
  403060:	eb dc                	jmp    40303e <driver_post+0x1f>
  403062:	48 83 ec 08          	sub    $0x8,%rsp
  403066:	41 51                	push   %r9
  403068:	49 89 c9             	mov    %rcx,%r9
  40306b:	49 89 d0             	mov    %rdx,%r8
  40306e:	48 89 f9             	mov    %rdi,%rcx
  403071:	48 89 f2             	mov    %rsi,%rdx
  403074:	be 26 47 00 00       	mov    $0x4726,%esi
  403079:	bf d5 43 40 00       	mov    $0x4043d5,%edi
  40307e:	e8 d2 f6 ff ff       	callq  402755 <submitr>
  403083:	48 83 c4 10          	add    $0x10,%rsp
  403087:	eb b5                	jmp    40303e <driver_post+0x1f>

0000000000403089 <check>:
  403089:	89 f8                	mov    %edi,%eax
  40308b:	c1 e8 1c             	shr    $0x1c,%eax
  40308e:	74 1d                	je     4030ad <check+0x24>
  403090:	b9 00 00 00 00       	mov    $0x0,%ecx
  403095:	83 f9 1f             	cmp    $0x1f,%ecx
  403098:	7f 0d                	jg     4030a7 <check+0x1e>
  40309a:	89 f8                	mov    %edi,%eax
  40309c:	d3 e8                	shr    %cl,%eax
  40309e:	3c 0a                	cmp    $0xa,%al
  4030a0:	74 11                	je     4030b3 <check+0x2a>
  4030a2:	83 c1 08             	add    $0x8,%ecx
  4030a5:	eb ee                	jmp    403095 <check+0xc>
  4030a7:	b8 01 00 00 00       	mov    $0x1,%eax
  4030ac:	c3                   	retq   
  4030ad:	b8 00 00 00 00       	mov    $0x0,%eax
  4030b2:	c3                   	retq   
  4030b3:	b8 00 00 00 00       	mov    $0x0,%eax
  4030b8:	c3                   	retq   

00000000004030b9 <gencookie>:
  4030b9:	53                   	push   %rbx
  4030ba:	83 c7 01             	add    $0x1,%edi
  4030bd:	e8 8e df ff ff       	callq  401050 <srandom@plt>
  4030c2:	e8 c9 e0 ff ff       	callq  401190 <random@plt>
  4030c7:	89 c3                	mov    %eax,%ebx
  4030c9:	89 c7                	mov    %eax,%edi
  4030cb:	e8 b9 ff ff ff       	callq  403089 <check>
  4030d0:	85 c0                	test   %eax,%eax
  4030d2:	74 ee                	je     4030c2 <gencookie+0x9>
  4030d4:	89 d8                	mov    %ebx,%eax
  4030d6:	5b                   	pop    %rbx
  4030d7:	c3                   	retq   

Disassembly of section .fini:

00000000004030d8 <_fini>:
  4030d8:	f3 0f 1e fa          	endbr64 
  4030dc:	48 83 ec 08          	sub    $0x8,%rsp
  4030e0:	48 83 c4 08          	add    $0x8,%rsp
  4030e4:	c3                   	retq   
